Certificate:
    Data:
        Version: 3 (0x2)
        Serial Number: 1234567890 (0x499602d2)
        Signature Algorithm: sha256WithRSAEncryption
        Issuer: CN = ca.example.com
        Validity
            Not Before: Feb  2 13:29:52 2023 GMT
            Not After : Feb  2 13:29:52 2024 GMT
        Subject: CN = test.example.com
        Subject Public Key Info:
            Public Key Algorithm: rsaEncryption
                Public-Key: (2048 bit)
                Modulus:
                    00:c2:96:2c:62:72:60:83:de:68:52:49:eb:3e:c0:
                    b6:8e:60:94:ec:95:5e:3e:80:54:e0:fd:49:51:43:
                    aa:48:4b:79:ff:39:fd:fa:77:bf:ff:83:a9:e2:eb:
                    ea:f4:9f:5a:b3:a2:2b:3b:6c:55:10:45:82:54:c2:
                    af:f5:ec:94:bd:a9:d2:5f:d7:84:dd:23:c8:21:ce:
                    ed:4a:ae:03:4c:87:10:86:e0:0e:b6:ce:b5:41:89:
                    0a:62:da:6b:b1:4a:7c:3d:12:de:c3:65:1e:ce:d4:
                    43:f6:be:52:ff:0e:32:b3:3e:c6:e6:82:23:3b:6e:
                    0a:48:aa:f4:c4:3e:48:36:09:93:ea:7f:c2:45:2b:
                    99:54:a7:07:2c:30:50:2d:cd:71:cc:1a:af:b3:30:
                    00:63:ae:6b:8e:a8:3b:6f:ab:8f:40:88:c0:3b:2b:
                    8c:70:ee:b8:22:f8:79:02:cd:40:61:75:6b:fe:ce:
                    fc:77:b4:23:a9:da:dc:53:4c:08:01:1f:b3:89:d7:
                    79:37:24:6d:44:60:81:7d:38:43:21:1f:a7:62:80:
                    79:bb:2c:4f:7a:fa:15:d6:ae:77:33:bc:34:13:95:
                    ff:42:00:64:e0:e7:b5:9e:d5:b1:04:e8:52:9a:f0:
                    4b:b4:17:8c:98:eb:ca:b7:d3:22:4b:c4:a7:7a:3a:
                    0f:69
                Exponent: 65537 (0x10001)
        X509v3 extensions:
            X509v3 Subject Key Identifier: 
                BE:C2:8D:C1:95:E9:46:92:29:49:D6:06:5C:F3:8C:BE:71:C1:E2:05
            X509v3 Authority Key Identifier: 
                BE:C2:8D:C1:95:E9:46:92:29:49:D6:06:5C:F3:8C:BE:71:C1:E2:05
            X509v3 Basic Constraints: critical
                CA:TRUE
    Signature Algorithm: sha256WithRSAEncryption
    Signature Value:
        93:60:d0:0c:bf:3c:1f:35:33:71:3a:9d:78:cf:c5:cc:30:17:
        a4:b5:6f:a5:a0:6e:7c:82:4a:f1:78:84:cd:b3:2e:fe:85:32:
        6e:f9:32:f7:00:ed:a1:37:7b:71:69:3a:a1:21:93:34:9f:64:
        d8:2a:4a:63:43:38:f2:cf:5a:96:41:58:42:f5:1b:fd:9e:da:
        a7:32:32:c4:0d:b2:2c:1c:9b:4f:3e:16:ef:31:39:d5:4a:ad:
        f8:49:57:4c:ca:4d:26:ec:a2:ee:fe:b4:8f:6f:26:a8:6f:da:
        77:d2:0d:a9:bc:39:0b:8f:d7:15:56:a1:f8:80:0b:8c:84:0a:
        a5:5f:6a:40:05:07:6c:f8:64:61:8b:8a:d3:09:f7:16:89:45:
        71:73:dd:61:67:f1:4f:7e:88:e6:2f:92:78:1e:22:a9:84:43:
        2b:8c:5e:37:ee:0c:f5:cd:08:49:69:0c:58:dc:25:3a:26:06:
        45:b4:f4:dd:3f:35:79:68:66:2d:9c:9f:eb:f4:e0:3c:90:66:
        a7:68:dd:b7:bf:84:cf:82:f3:5e:20:6c:37:09:8c:1b:c8:62:
        f9:5c:2f:9b:66:96:73:e4:e3:bf:bb:4e:23:99:b7:12:da:e9:
        d4:46:c3:52:37:a9:7c:56:bd:46:4b:a4:aa:14:17:b2:c4:1c:
        af:5d:dd:75:33:32:b1:fc:0f:ac:ef:26:d1:ec:55:b0:54:8d:
        e8:52:86:80:fe:0d:19:42:b5:50:fe:d6:c7:8d:c1:30:70:8b:
        4a:01:a2:7b:6e:be:c0:17:ac:b6:95:38:e2:f1:00:49:c0:d0:
        1d:49:98:7a:2b:81:12:57:e0:ed:ec:b3:ef:35:0a:26:8a:a0:
        1f:67:4d:fa:8f:ac:25:3a:6e:06:44:38:65:bb:02:ed:f0:ac:
        ff:18:3a:7e:5a:ec:6c:5e:82:37:12:99:1a:11:42:b8:ce:0d:
        75:f3:23:be:f5:2d:44:dc:03:94:f2:71:05:53:11:a4:06:5d:
        f5:9e:ca:6e:09:55:3c:96:be:61:15:9f:d2:c2:18:f0:6c:d6:
        b2:45:b3:bf:63:4b:0f:0d:0e:4c:8f:cf:00:4e:29:9f:0f:cf:
        ea:d4:42:11:1e:60:9d:9b:cf:06:be:10:02:01:66:25:5d:85:
        3c:a2:8b:25:5d:37:78:31:54:37:51:44:b4:80:55:d5:d9:99:
        2b:79:ca:91:0f:36:f6:b1:31:e9:c0:67:31:fb:84:7f:b8:44:
        8d:9d:0e:87:d0:30:b7:3c:6d:97:a6:e9:a1:bc:1f:c5:b9:8c:
        c4:6f:78:19:dd:52:5e:79:56:f8:24:b4:94:65:23:11:a9:3d:
        14:e4:ca:60:c2:68:a2:b7
-----BEGIN CERTIFICATE-----
MIIEBTCCAe2gAwIBAgIESZYC0jANBgkqhkiG9w0BAQsFADAZMRcwFQYDVQQDDA5j
YS5leGFtcGxlLmNvbTAeFw0yMzAyMDIxMzI5NTJaFw0yNDAyMDIxMzI5NTJaMBsx
GTAXBgNVBAMMEHRlc3QuZXhhbXBsZS5jb20wggEiMA0GCSqGSIb3DQEBAQUAA4IB
DwAwggEKAoIBAQDClixicmCD3mhSSes+wLaOYJTslV4+gFTg/UlRQ6pIS3n/Of36
d7//g6ni6+r0n1qzois7bFUQRYJUwq/17JS9qdJf14TdI8ghzu1KrgNMhxCG4A62
zrVBiQpi2muxSnw9Et7DZR7O1EP2vlL/DjKzPsbmgiM7bgpIqvTEPkg2CZPqf8JF
K5lUpwcsMFAtzXHMGq+zMABjrmuOqDtvq49AiMA7K4xw7rgi+HkCzUBhdWv+zvx3
tCOp2txTTAgBH7OJ13k3JG1EYIF9OEMhH6digHm7LE96+hXWrnczvDQTlf9CAGTg
57We1bEE6FKa8Eu0F4yY68q30yJLxKd6Og9pAgMBAAGjUzBRMB0GA1UdDgQWBBS+
wo3BlelGkilJ1gZc84y+ccHiBTAfBgNVHSMEGDAWgBS+wo3BlelGkilJ1gZc84y+
ccHiBTAPBgNVHRMBAf8EBTADAQH/MA0GCSqGSIb3DQEBCwUAA4ICAQCTYNAMvzwf
NTNxOp14z8XMMBektW+loG58gkrxeITNsy7+hTJu+TL3AO2hN3txaTqhIZM0n2TY
KkpjQzjyz1qWQVhC9Rv9ntqnMjLEDbIsHJtPPhbvMTnVSq34SVdMyk0m7KLu/rSP
byaob9p30g2pvDkLj9cVVqH4gAuMhAqlX2pABQds+GRhi4rTCfcWiUVxc91hZ/FP
fojmL5J4HiKphEMrjF437gz1zQhJaQxY3CU6JgZFtPTdPzV5aGYtnJ/r9OA8kGan
aN23v4TPgvNeIGw3CYwbyGL5XC+bZpZz5OO/u04jmbcS2unURsNSN6l8Vr1GS6Sq
FBeyxByvXd11MzKx/A+s7ybR7FWwVI3oUoaA/g0ZQrVQ/tbHjcEwcItKAaJ7br7A
F6y2lTji8QBJwNAdSZh6K4ESV+Dt7LPvNQomiqAfZ036j6wlOm4GRDhluwLt8Kz/
GDp+WuxsXoI3EpkaEUK4zg118yO+9S1E3AOU8nEFUxGkBl31nspuCVU8lr5hFZ/S
whjwbNayRbO/Y0sPDQ5Mj88ATimfD8/q1EIRHmCdm88GvhACAWYlXYU8ooslXTd4
MVQ3UUS0gFXV2ZkrecqRDzb2sTHpwGcx+4R/uESNnQ6H0DC3PG2XpumhvB/FuYzE
b3gZ3VJeeVb4JLSUZSMRqT0U5Mpgwmiitw==
-----END CERTIFICATE-----
