Certificate:
    Data:
        Version: 1 (0x0)
        Serial Number:
            56:69:b3:7f:ed:ce:88:1d:d5:4a:d7:e6:8d:13:8b:16:22:62:45:ef
        Signature Algorithm: sha256WithRSAEncryption
        Issuer: CN = ca.example.com
        Validity
            Not Before: Feb  2 13:29:57 2023 GMT
            Not After : Mar  4 13:29:57 2023 GMT
        Subject: CN = b.example.com
        Subject Public Key Info:
            Public Key Algorithm: rsaEncryption
                Public-Key: (4096 bit)
                Modulus:
                    00:bd:61:d1:5f:46:fe:19:f2:5f:0f:18:65:f1:02:
                    42:d6:bf:a1:2c:b7:02:9e:df:79:62:ac:9b:d9:a3:
                    ee:b4:2c:f2:eb:0b:00:b3:1a:a5:91:e7:37:7d:3f:
                    71:dd:9e:0b:7b:84:7e:56:7c:a7:40:fa:1a:21:b6:
                    cc:3f:ef:5b:47:d3:86:35:2d:0a:bd:e6:78:01:0c:
                    11:fe:13:e5:45:4d:8f:74:33:8d:11:ba:ba:b5:0c:
                    db:89:29:01:d3:c1:a2:f7:45:5c:59:40:23:da:de:
                    07:26:93:42:4e:52:e4:aa:a3:b1:6c:4c:9a:24:01:
                    80:96:cc:7b:ba:31:a1:e4:7d:a3:2b:66:73:6c:b9:
                    1e:92:d1:64:2d:2d:7b:e2:39:04:2b:e3:54:fb:27:
                    f3:ba:d4:3b:ce:f6:fb:f9:a0:2d:7c:b2:63:2a:94:
                    91:0c:5c:e7:fd:d3:78:71:a5:58:b7:c3:03:34:f6:
                    ca:44:f7:e0:7f:92:69:87:eb:46:04:67:90:b6:44:
                    c3:9f:13:f6:fc:e0:7f:cd:4a:dd:ad:6d:cc:82:62:
                    c4:a2:2f:91:12:6f:a4:a8:b7:3f:27:4f:0d:b0:d9:
                    14:ab:f3:90:c1:93:d1:e8:6f:84:b4:69:7d:80:26:
                    2d:12:8b:e7:ba:21:70:57:f7:ff:76:4b:d0:85:ec:
                    21:36:8d:4f:f6:59:71:1a:f6:ce:d9:d8:b2:8c:2b:
                    79:dd:1e:9a:bd:95:3f:5e:5d:37:56:eb:12:69:60:
                    64:90:07:b6:1d:6d:5a:0c:ae:35:0f:58:bf:9b:ef:
                    11:40:43:0a:e7:39:09:ef:8e:64:e3:e4:08:c0:78:
                    20:d3:20:95:72:5c:30:05:50:fa:53:b5:de:12:65:
                    f3:51:25:60:06:e4:7f:92:a2:d8:d4:11:be:f5:45:
                    65:23:e7:7d:9a:d8:76:21:e7:25:30:7b:8f:c9:6b:
                    67:7c:68:ce:c4:b5:a3:05:2a:9c:f0:3d:2c:fc:82:
                    05:9e:af:98:4c:02:2e:f3:84:8b:be:5e:49:8e:18:
                    65:bc:b5:a6:ad:e0:4d:f3:0e:39:6b:cd:1a:b1:a4:
                    eb:70:9f:64:a2:6a:49:ca:e2:e1:55:3f:ca:4a:6c:
                    71:e6:4b:c6:4f:b0:89:af:da:af:55:6b:9a:56:a5:
                    3a:11:e5:54:95:8f:28:3d:47:ae:fc:f1:1d:07:24:
                    5c:3c:a9:c3:16:1d:50:cb:59:ac:ed:5d:ed:5b:8c:
                    1f:48:93:7c:2f:7a:c5:61:e9:5d:7a:d8:3b:02:55:
                    55:6e:ec:28:75:5b:92:91:02:9b:1a:d8:db:fc:38:
                    13:11:4f:0a:05:54:99:c9:05:84:f0:19:d1:b2:fb:
                    f8:7f:69
                Exponent: 65537 (0x10001)
    Signature Algorithm: sha256WithRSAEncryption
    Signature Value:
        58:d7:17:a2:96:a7:63:07:35:bb:df:29:49:95:b7:92:24:9a:
        72:ef:c8:20:e6:1c:a1:b7:3c:04:13:42:1e:56:a8:5e:b4:c3:
        bc:22:1a:82:43:07:9e:b5:9c:51:9f:9b:61:35:01:54:cb:17:
        78:47:6a:18:d5:51:8f:0c:41:69:6d:d9:16:d9:93:60:86:be:
        85:79:f4:8e:00:23:64:d7:65:20:66:fe:a4:36:7d:1d:98:da:
        b1:06:0d:35:1f:d0:3a:b1:10:6b:fc:45:94:5d:1e:f9:78:79:
        03:6b:db:cf:dd:dd:17:24:db:cd:1c:05:f5:5f:a7:ac:b8:0f:
        42:56:53:92:ea:a7:27:c5:c2:5a:ba:cd:79:51:93:8e:de:02:
        09:32:a0:2d:ae:29:be:1d:36:50:78:70:4b:cd:04:bd:9f:4d:
        0c:2b:71:04:9c:51:b1:14:bf:32:80:b6:ba:f6:4e:c9:be:c3:
        44:93:25:d0:03:f8:30:ef:7e:53:a6:82:c1:f9:60:39:ca:6b:
        8a:d6:ed:83:eb:78:35:cc:6b:7e:4c:ef:d3:e4:e4:a0:ad:4e:
        03:fa:e2:40:22:5f:09:49:ee:91:55:5e:16:01:06:c6:db:40:
        22:72:d1:a0:ef:a7:70:f6:77:3b:99:d6:64:26:9d:6f:84:0a:
        25:e2:f9:39:df:3e:53:f5:15:f7:5b:a3:6e:bb:26:e9:e3:e3:
        59:72:e7:20:1e:b2:0f:e1:8b:93:88:2e:fc:0b:a0:91:50:f3:
        60:c9:ea:82:65:24:8d:43:d7:79:df:a6:fe:bd:a8:b5:92:0a:
        0a:35:e4:e8:fb:41:d9:26:c7:00:73:6f:47:b6:5c:14:e1:51:
        f0:ed:2e:9d:a7:f4:ad:07:04:3f:7b:09:11:fa:14:2f:67:ca:
        12:53:71:82:5f:93:e6:fc:ac:87:0e:73:0f:f5:c5:12:f0:3a:
        17:51:75:5b:d4:b7:d2:f8:8f:34:23:85:31:86:65:e3:59:c8:
        82:5c:ee:2d:4f:1b:32:1f:5e:08:0f:98:ba:64:9d:61:d7:e2:
        ed:6a:0f:8d:e4:5c:67:8b:e7:04:f5:03:dc:14:12:32:5a:6c:
        61:24:82:8b:73:ac:91:f0:18:b6:61:5a:03:c7:bf:4d:52:4d:
        01:db:de:93:11:4a:aa:ad:b5:62:36:2a:da:9a:d3:be:74:ff:
        fa:e1:dd:f9:27:9d:ac:b6:dc:f6:21:88:29:5d:d0:53:b7:4d:
        65:6c:5d:44:77:e2:e3:9c:af:d7:7f:3f:e1:52:7d:d8:c2:67:
        0e:c6:c5:66:9b:c5:59:54:63:49:90:ad:b6:60:28:6f:0e:a8:
        b2:08:75:27:c5:f7:9d:ee
-----BEGIN CERTIFICATE-----
MIIEuDCCAqACFFZps3/tzogd1UrX5o0TixYiYkXvMA0GCSqGSIb3DQEBCwUAMBkx
FzAVBgNVBAMMDmNhLmV4YW1wbGUuY29tMB4XDTIzMDIwMjEzMjk1N1oXDTIzMDMw
NDEzMjk1N1owGDEWMBQGA1UEAwwNYi5leGFtcGxlLmNvbTCCAiIwDQYJKoZIhvcN
AQEBBQADggIPADCCAgoCggIBAL1h0V9G/hnyXw8YZfECQta/oSy3Ap7feWKsm9mj
7rQs8usLALMapZHnN30/cd2eC3uEflZ8p0D6GiG2zD/vW0fThjUtCr3meAEMEf4T
5UVNj3QzjRG6urUM24kpAdPBovdFXFlAI9reByaTQk5S5KqjsWxMmiQBgJbMe7ox
oeR9oytmc2y5HpLRZC0te+I5BCvjVPsn87rUO872+/mgLXyyYyqUkQxc5/3TeHGl
WLfDAzT2ykT34H+SaYfrRgRnkLZEw58T9vzgf81K3a1tzIJixKIvkRJvpKi3PydP
DbDZFKvzkMGT0ehvhLRpfYAmLRKL57ohcFf3/3ZL0IXsITaNT/ZZcRr2ztnYsowr
ed0emr2VP15dN1brEmlgZJAHth1tWgyuNQ9Yv5vvEUBDCuc5Ce+OZOPkCMB4INMg
lXJcMAVQ+lO13hJl81ElYAbkf5Ki2NQRvvVFZSPnfZrYdiHnJTB7j8lrZ3xozsS1
owUqnPA9LPyCBZ6vmEwCLvOEi75eSY4YZby1pq3gTfMOOWvNGrGk63CfZKJqScri
4VU/ykpsceZLxk+wia/ar1VrmlalOhHlVJWPKD1HrvzxHQckXDypwxYdUMtZrO1d
7VuMH0iTfC96xWHpXXrYOwJVVW7sKHVbkpECmxrY2/w4ExFPCgVUmckFhPAZ0bL7
+H9pAgMBAAEwDQYJKoZIhvcNAQELBQADggIBAFjXF6KWp2MHNbvfKUmVt5IkmnLv
yCDmHKG3PAQTQh5WqF60w7wiGoJDB561nFGfm2E1AVTLF3hHahjVUY8MQWlt2RbZ
k2CGvoV59I4AI2TXZSBm/qQ2fR2Y2rEGDTUf0DqxEGv8RZRdHvl4eQNr28/d3Rck
280cBfVfp6y4D0JWU5LqpyfFwlq6zXlRk47eAgkyoC2uKb4dNlB4cEvNBL2fTQwr
cQScUbEUvzKAtrr2Tsm+w0STJdAD+DDvflOmgsH5YDnKa4rW7YPreDXMa35M79Pk
5KCtTgP64kAiXwlJ7pFVXhYBBsbbQCJy0aDvp3D2dzuZ1mQmnW+ECiXi+TnfPlP1
Ffdbo267Junj41ly5yAesg/hi5OILvwLoJFQ82DJ6oJlJI1D13nfpv69qLWSCgo1
5Oj7QdkmxwBzb0e2XBThUfDtLp2n9K0HBD97CRH6FC9nyhJTcYJfk+b8rIcOcw/1
xRLwOhdRdVvUt9L4jzQjhTGGZeNZyIJc7i1PGzIfXggPmLpknWHX4u1qD43kXGeL
5wT1A9wUEjJabGEkgotzrJHwGLZhWgPHv01STQHb3pMRSqqttWI2Ktqa0750//rh
3fknnay23PYhiCld0FO3TWVsXUR34uOcr9d/P+FSfdjCZw7GxWabxVlUY0mQrbZg
KG8OqLIIdSfF953u
-----END CERTIFICATE-----
