Certificate:
    Data:
        Version: 3 (0x2)
        Serial Number:
            42:e9:d8:5d:e1:b8:42:6f:b0:7e:a5:b0:31:c6:41:a9:c1:53:dc:76
        Signature Algorithm: sha1WithRSAEncryption
        Issuer: C=AU, O=Dodgy Brothers, CN=Dodgy CA
        Validity
            Not Before: Feb  2 13:35:31 2023 GMT
            Not After : Feb  2 13:35:31 2024 GMT
        Subject: C=AU, O=Dodgy Brothers, CN=Brother 1, CN=both_generalizedtime
        Subject Public Key Info:
            Public Key Algorithm: rsaEncryption
                Public-Key: (2048 bit)
                Modulus:
                    00:be:95:86:fa:71:4c:6a:ea:51:98:50:4b:99:a1:
                    2c:66:15:f3:60:f3:e1:ff:69:fb:ce:48:01:1d:fe:
                    e1:2c:38:b0:e3:bd:8f:4b:48:a7:7e:3a:c6:73:e3:
                    ab:bf:e1:da:6e:96:f5:fe:c3:e4:b4:a8:ad:bc:56:
                    34:d4:96:25:74:27:c3:10:db:35:10:25:1c:8e:4b:
                    81:9b:fb:42:04:7c:6f:3d:e2:38:6c:0e:e4:2e:8e:
                    2a:18:6d:30:cd:67:2a:23:6b:37:cf:05:9f:cc:b7:
                    59:58:7f:ba:c4:0a:3f:8c:a4:ad:cb:98:9c:c0:f2:
                    8f:69:67:0f:c1:4e:33:cf:fc:85:5e:bb:5e:cf:93:
                    b0:cf:d9:f4:52:79:87:b1:f8:4d:15:68:65:d5:b7:
                    19:08:63:7f:5e:b1:34:ad:05:8f:5a:f0:e4:e1:8f:
                    25:f2:5c:5c:61:95:b0:56:2d:31:2b:08:65:79:e5:
                    b1:3b:9d:3e:b9:52:4b:ac:5d:c4:58:66:85:8d:81:
                    b3:04:28:f4:3f:2f:ac:92:01:62:d5:fd:8e:0b:da:
                    02:0c:7a:c7:6e:09:1c:ac:1c:b2:4c:d7:54:b8:26:
                    33:b2:5f:14:f3:b1:f9:3d:62:4d:40:99:6b:b6:e7:
                    89:58:97:d6:d4:4d:ea:4b:68:52:f3:3c:a8:b1:35:
                    88:db
                Exponent: 65537 (0x10001)
        X509v3 extensions:
            X509v3 Subject Key Identifier: 
                A1:DF:33:C3:CF:3E:53:41:A7:68:44:CC:AA:19:E1:84:C9:0D:BC:C6
            X509v3 Authority Key Identifier: 
                keyid:B4:11:33:F1:D7:E2:5E:F7:53:9E:20:22:10:4F:86:06:BF:1F:C9:5E
                DirName:/C=AU/O=Dodgy Brothers/CN=Dodgy CA
                serial:45:A9:F0:5A:76:82:C5:78:87:1D:BA:45:07:D4:1F:6F:EF:65:02:F7
            X509v3 Basic Constraints: critical
                CA:TRUE, pathlen:1
            X509v3 Key Usage: 
                Certificate Sign, CRL Sign
            X509v3 Issuer Alternative Name: 
                <EMPTY>

    Signature Algorithm: sha1WithRSAEncryption
    Signature Value:
        89:32:d7:cb:f0:d3:97:00:35:25:93:04:a7:a0:8c:b0:d5:12:
        40:dc:52:31:94:ec:c1:6c:97:45:95:37:a2:b3:a1:82:7b:70:
        72:1c:71:bf:39:0c:50:a8:de:e7:29:e9:c6:08:7a:2d:bb:bd:
        63:c3:2f:e1:ab:51:fd:1f:aa:85:08:82:12:31:d5:2e:73:89:
        91:5d:8d:e6:56:0a:1b:c0:44:8a:63:b0:40:de:11:2c:a7:13:
        42:a3:f8:50:b5:9a:d4:ad:da:88:9f:40:a7:15:bf:2a:94:04:
        7d:c0:d8:ec:f8:15:47:2a:60:74:ac:3c:dc:4d:d9:c2:27:a4:
        a5:73:f3:35:ac:13:70:69:ff:6d:47:0f:c7:02:97:6b:54:74:
        07:80:61:a0:4d:36:d5:ca:fb:5c:30:75:7d:55:aa:16:b0:b0:
        34:94:26:f1:89:45:e3:57:2a:3f:c6:8e:13:c2:eb:bc:7e:11:
        2d:23:7b:5f:f2:d9:39:7a:77:20:4a:2a:b1:bc:7e:43:28:ef:
        96:1c:78:5a:bb:7d:a3:7d:01:c7:55:28:a6:97:3a:b7:12:fb:
        28:44:6a:21:ca:09:89:bf:a0:c2:98:fb:bb:15:0b:ba:59:f5:
        8e:1a:01:48:9e:fe:c9:10:10:fb:1d:fc:32:6e:34:7c:bf:ef:
        b4:d5:45:6e
-----BEGIN CERTIFICATE-----
MIID5TCCAs2gAwIBAgIUQunYXeG4Qm+wfqWwMcZBqcFT3HYwDQYJKoZIhvcNAQEF
BQAwOTELMAkGA1UEBhMCQVUxFzAVBgNVBAoMDkRvZGd5IEJyb3RoZXJzMREwDwYD
VQQDDAhEb2RneSBDQTAeFw0yMzAyMDIxMzM1MzFaFw0yNDAyMDIxMzM1MzFaMFkx
CzAJBgNVBAYTAkFVMRcwFQYDVQQKDA5Eb2RneSBCcm90aGVyczESMBAGA1UEAwwJ
QnJvdGhlciAxMR0wGwYDVQQDDBRib3RoX2dlbmVyYWxpemVkdGltZTCCASIwDQYJ
KoZIhvcNAQEBBQADggEPADCCAQoCggEBAL6VhvpxTGrqUZhQS5mhLGYV82Dz4f9p
+85IAR3+4Sw4sOO9j0tIp346xnPjq7/h2m6W9f7D5LSorbxWNNSWJXQnwxDbNRAl
HI5LgZv7QgR8bz3iOGwO5C6OKhhtMM1nKiNrN88Fn8y3WVh/usQKP4ykrcuYnMDy
j2lnD8FOM8/8hV67Xs+TsM/Z9FJ5h7H4TRVoZdW3GQhjf16xNK0Fj1rw5OGPJfJc
XGGVsFYtMSsIZXnlsTudPrlSS6xdxFhmhY2BswQo9D8vrJIBYtX9jgvaAgx6x24J
HKwcskzXVLgmM7JfFPOx+T1iTUCZa7bniViX1tRN6ktoUvM8qLE1iNsCAwEAAaOB
xDCBwTAdBgNVHQ4EFgQUod8zw88+U0GnaETMqhnhhMkNvMYwdAYDVR0jBG0wa4AU
tBEz8dfiXvdTniAiEE+GBr8fyV6hPaQ7MDkxCzAJBgNVBAYTAkFVMRcwFQYDVQQK
DA5Eb2RneSBCcm90aGVyczERMA8GA1UEAwwIRG9kZ3kgQ0GCFEWp8Fp2gsV4hx26
RQfUH2/vZQL3MBIGA1UdEwEB/wQIMAYBAf8CAQEwCwYDVR0PBAQDAgEGMAkGA1Ud
EgQCMAAwDQYJKoZIhvcNAQEFBQADggEBAIky18vw05cANSWTBKegjLDVEkDcUjGU
7MFsl0WVN6KzoYJ7cHIccb85DFCo3ucp6cYIei27vWPDL+GrUf0fqoUIghIx1S5z
iZFdjeZWChvARIpjsEDeESynE0Kj+FC1mtSt2oifQKcVvyqUBH3A2Oz4FUcqYHSs
PNxN2cInpKVz8zWsE3Bp/21HD8cCl2tUdAeAYaBNNtXK+1wwdX1VqhawsDSUJvGJ
ReNXKj/GjhPC67x+ES0je1/y2Tl6dyBKKrG8fkMo75YceFq7faN9AcdVKKaXOrcS
+yhEaiHKCYm/oMKY+7sVC7pZ9Y4aAUie/skQEPsd/DJuNHy/77TVRW4=
-----END CERTIFICATE-----
