Certificate:
    Data:
        Version: 3 (0x2)
        Serial Number:
            42:e9:d8:5d:e1:b8:42:6f:b0:7e:a5:b0:31:c6:41:a9:c1:53:dc:75
        Signature Algorithm: sha1WithRSAEncryption
        Issuer: C=AU, O=Dodgy Brothers, CN=Dodgy CA
        Validity
            Not Before: Feb  2 13:35:31 2023 GMT
            Not After : Feb  2 13:35:31 2024 GMT
        Subject: C=AU, O=Dodgy Brothers, CN=Brother 1, CN=both_utctime
        Subject Public Key Info:
            Public Key Algorithm: rsaEncryption
                Public-Key: (2048 bit)
                Modulus:
                    00:be:95:86:fa:71:4c:6a:ea:51:98:50:4b:99:a1:
                    2c:66:15:f3:60:f3:e1:ff:69:fb:ce:48:01:1d:fe:
                    e1:2c:38:b0:e3:bd:8f:4b:48:a7:7e:3a:c6:73:e3:
                    ab:bf:e1:da:6e:96:f5:fe:c3:e4:b4:a8:ad:bc:56:
                    34:d4:96:25:74:27:c3:10:db:35:10:25:1c:8e:4b:
                    81:9b:fb:42:04:7c:6f:3d:e2:38:6c:0e:e4:2e:8e:
                    2a:18:6d:30:cd:67:2a:23:6b:37:cf:05:9f:cc:b7:
                    59:58:7f:ba:c4:0a:3f:8c:a4:ad:cb:98:9c:c0:f2:
                    8f:69:67:0f:c1:4e:33:cf:fc:85:5e:bb:5e:cf:93:
                    b0:cf:d9:f4:52:79:87:b1:f8:4d:15:68:65:d5:b7:
                    19:08:63:7f:5e:b1:34:ad:05:8f:5a:f0:e4:e1:8f:
                    25:f2:5c:5c:61:95:b0:56:2d:31:2b:08:65:79:e5:
                    b1:3b:9d:3e:b9:52:4b:ac:5d:c4:58:66:85:8d:81:
                    b3:04:28:f4:3f:2f:ac:92:01:62:d5:fd:8e:0b:da:
                    02:0c:7a:c7:6e:09:1c:ac:1c:b2:4c:d7:54:b8:26:
                    33:b2:5f:14:f3:b1:f9:3d:62:4d:40:99:6b:b6:e7:
                    89:58:97:d6:d4:4d:ea:4b:68:52:f3:3c:a8:b1:35:
                    88:db
                Exponent: 65537 (0x10001)
        X509v3 extensions:
            X509v3 Subject Key Identifier: 
                A1:DF:33:C3:CF:3E:53:41:A7:68:44:CC:AA:19:E1:84:C9:0D:BC:C6
            X509v3 Authority Key Identifier: 
                keyid:B4:11:33:F1:D7:E2:5E:F7:53:9E:20:22:10:4F:86:06:BF:1F:C9:5E
                DirName:/C=AU/O=Dodgy Brothers/CN=Dodgy CA
                serial:45:A9:F0:5A:76:82:C5:78:87:1D:BA:45:07:D4:1F:6F:EF:65:02:F7
            X509v3 Basic Constraints: critical
                CA:TRUE, pathlen:1
            X509v3 Key Usage: 
                Certificate Sign, CRL Sign
            X509v3 Issuer Alternative Name: 
                <EMPTY>

    Signature Algorithm: sha1WithRSAEncryption
    Signature Value:
        11:8c:62:08:5d:b4:ab:e4:0a:49:5f:ed:b5:3e:a7:2d:cb:06:
        ad:52:40:c6:4b:19:6c:d3:fd:6b:c7:75:70:fb:b2:10:a0:c8:
        e0:60:b7:5f:c9:16:ab:1e:92:08:f4:d1:b5:22:79:0d:44:71:
        30:3a:6c:12:2c:63:b5:7c:88:64:f5:e2:4c:6e:0d:bf:a0:bf:
        56:09:5d:53:e9:bb:39:9a:66:c8:71:b5:15:b0:77:e2:18:13:
        10:b9:8b:f8:00:d8:f7:78:6e:74:99:10:11:7e:f4:eb:13:9c:
        56:d8:7d:d2:d1:f2:e9:95:d4:56:73:28:2a:d7:2c:a9:c7:45:
        1f:e3:f7:11:16:f0:3f:14:9a:28:ee:5b:42:78:13:64:01:79:
        77:79:d2:d5:a8:6c:f6:a3:04:02:7f:fc:bf:59:e0:8b:28:a9:
        30:b8:0e:71:ac:4e:10:7f:f2:fa:44:ba:92:fa:11:bb:5a:63:
        2c:3d:42:3d:c7:d3:a1:d6:a2:c2:76:54:b7:cf:70:d2:88:e2:
        12:e2:60:23:ef:c5:79:17:9a:c4:1d:2d:4a:59:17:16:70:e1:
        e9:6c:a7:6a:fe:66:d9:df:e3:14:5c:bd:31:6e:dd:f3:37:cc:
        af:ad:b2:42:fa:ca:3b:74:80:97:00:68:91:11:9c:7e:fb:51:
        08:99:c6:37
-----BEGIN CERTIFICATE-----
MIID3TCCAsWgAwIBAgIUQunYXeG4Qm+wfqWwMcZBqcFT3HUwDQYJKoZIhvcNAQEF
BQAwOTELMAkGA1UEBhMCQVUxFzAVBgNVBAoMDkRvZGd5IEJyb3RoZXJzMREwDwYD
VQQDDAhEb2RneSBDQTAeFw0yMzAyMDIxMzM1MzFaFw0yNDAyMDIxMzM1MzFaMFEx
CzAJBgNVBAYTAkFVMRcwFQYDVQQKDA5Eb2RneSBCcm90aGVyczESMBAGA1UEAwwJ
QnJvdGhlciAxMRUwEwYDVQQDDAxib3RoX3V0Y3RpbWUwggEiMA0GCSqGSIb3DQEB
AQUAA4IBDwAwggEKAoIBAQC+lYb6cUxq6lGYUEuZoSxmFfNg8+H/afvOSAEd/uEs
OLDjvY9LSKd+OsZz46u/4dpulvX+w+S0qK28VjTUliV0J8MQ2zUQJRyOS4Gb+0IE
fG894jhsDuQujioYbTDNZyojazfPBZ/Mt1lYf7rECj+MpK3LmJzA8o9pZw/BTjPP
/IVeu17Pk7DP2fRSeYex+E0VaGXVtxkIY39esTStBY9a8OThjyXyXFxhlbBWLTEr
CGV55bE7nT65UkusXcRYZoWNgbMEKPQ/L6ySAWLV/Y4L2gIMesduCRysHLJM11S4
JjOyXxTzsfk9Yk1AmWu254lYl9bUTepLaFLzPKixNYjbAgMBAAGjgcQwgcEwHQYD
VR0OBBYEFKHfM8PPPlNBp2hEzKoZ4YTJDbzGMHQGA1UdIwRtMGuAFLQRM/HX4l73
U54gIhBPhga/H8leoT2kOzA5MQswCQYDVQQGEwJBVTEXMBUGA1UECgwORG9kZ3kg
QnJvdGhlcnMxETAPBgNVBAMMCERvZGd5IENBghRFqfBadoLFeIcdukUH1B9v72UC
9zASBgNVHRMBAf8ECDAGAQH/AgEBMAsGA1UdDwQEAwIBBjAJBgNVHRIEAjAAMA0G
CSqGSIb3DQEBBQUAA4IBAQARjGIIXbSr5ApJX+21PqctywatUkDGSxls0/1rx3Vw
+7IQoMjgYLdfyRarHpII9NG1InkNRHEwOmwSLGO1fIhk9eJMbg2/oL9WCV1T6bs5
mmbIcbUVsHfiGBMQuYv4ANj3eG50mRARfvTrE5xW2H3S0fLpldRWcygq1yypx0Uf
4/cRFvA/FJoo7ltCeBNkAXl3edLVqGz2owQCf/y/WeCLKKkwuA5xrE4Qf/L6RLqS
+hG7WmMsPUI9x9Oh1qLCdlS3z3DSiOIS4mAj78V5F5rEHS1KWRcWcOHpbKdq/mbZ
3+MUXL0xbt3zN8yvrbJC+so7dICXAGiREZx++1EImcY3
-----END CERTIFICATE-----
