Certificate:
    Data:
        Version: 3 (0x2)
        Serial Number:
            42:e9:d8:5d:e1:b8:42:6f:b0:7e:a5:b0:31:c6:41:a9:c1:53:dc:71
        Signature Algorithm: sha1WithRSAEncryption
        Issuer: C=AU, O=Dodgy Brothers, CN=Dodgy CA
        Validity
            Not Before: Feb  2 13:35:29 2023 GMT
            Not After : Feb  2 13:35:29 2024 GMT
        Subject: C=AU, O=Dodgy Brothers, CN=Brother 1, CN=lastupdate_generalizedtime
        Subject Public Key Info:
            Public Key Algorithm: rsaEncryption
                Public-Key: (2048 bit)
                Modulus:
                    00:be:95:86:fa:71:4c:6a:ea:51:98:50:4b:99:a1:
                    2c:66:15:f3:60:f3:e1:ff:69:fb:ce:48:01:1d:fe:
                    e1:2c:38:b0:e3:bd:8f:4b:48:a7:7e:3a:c6:73:e3:
                    ab:bf:e1:da:6e:96:f5:fe:c3:e4:b4:a8:ad:bc:56:
                    34:d4:96:25:74:27:c3:10:db:35:10:25:1c:8e:4b:
                    81:9b:fb:42:04:7c:6f:3d:e2:38:6c:0e:e4:2e:8e:
                    2a:18:6d:30:cd:67:2a:23:6b:37:cf:05:9f:cc:b7:
                    59:58:7f:ba:c4:0a:3f:8c:a4:ad:cb:98:9c:c0:f2:
                    8f:69:67:0f:c1:4e:33:cf:fc:85:5e:bb:5e:cf:93:
                    b0:cf:d9:f4:52:79:87:b1:f8:4d:15:68:65:d5:b7:
                    19:08:63:7f:5e:b1:34:ad:05:8f:5a:f0:e4:e1:8f:
                    25:f2:5c:5c:61:95:b0:56:2d:31:2b:08:65:79:e5:
                    b1:3b:9d:3e:b9:52:4b:ac:5d:c4:58:66:85:8d:81:
                    b3:04:28:f4:3f:2f:ac:92:01:62:d5:fd:8e:0b:da:
                    02:0c:7a:c7:6e:09:1c:ac:1c:b2:4c:d7:54:b8:26:
                    33:b2:5f:14:f3:b1:f9:3d:62:4d:40:99:6b:b6:e7:
                    89:58:97:d6:d4:4d:ea:4b:68:52:f3:3c:a8:b1:35:
                    88:db
                Exponent: 65537 (0x10001)
        X509v3 extensions:
            X509v3 Subject Key Identifier: 
                A1:DF:33:C3:CF:3E:53:41:A7:68:44:CC:AA:19:E1:84:C9:0D:BC:C6
            X509v3 Authority Key Identifier: 
                keyid:B4:11:33:F1:D7:E2:5E:F7:53:9E:20:22:10:4F:86:06:BF:1F:C9:5E
                DirName:/C=AU/O=Dodgy Brothers/CN=Dodgy CA
                serial:45:A9:F0:5A:76:82:C5:78:87:1D:BA:45:07:D4:1F:6F:EF:65:02:F7
            X509v3 Basic Constraints: critical
                CA:TRUE, pathlen:1
            X509v3 Key Usage: 
                Certificate Sign, CRL Sign
            X509v3 Issuer Alternative Name: 
                <EMPTY>

    Signature Algorithm: sha1WithRSAEncryption
    Signature Value:
        07:9a:e9:ca:6e:b9:e1:e0:60:c7:12:20:b0:d3:f3:3a:b6:3f:
        57:54:86:fe:14:3c:c3:67:38:4b:87:d2:70:0b:c6:0d:87:33:
        f0:05:74:d8:0c:d6:f3:de:92:61:df:6f:fa:92:aa:c3:8e:c6:
        b4:83:91:58:4d:f0:6c:8c:1c:a4:0e:e0:b7:0f:74:6a:fc:79:
        24:5b:bb:be:8d:dd:40:f4:0f:4e:85:70:8d:dd:45:32:9e:45:
        c9:69:14:06:3d:fa:81:b3:37:57:1e:3e:53:3e:96:8d:d9:4d:
        ca:37:84:12:f5:ba:c0:65:54:ac:42:f2:74:9a:fa:48:21:00:
        ca:93:7c:88:8f:78:1f:76:0c:6a:8f:2a:aa:3d:38:01:b7:de:
        21:e3:21:e2:74:f7:a9:b6:fb:33:af:8c:02:50:32:6d:34:5f:
        ed:b9:d2:35:5a:5f:e1:d3:9c:9b:b7:08:3e:41:83:a6:6f:b0:
        5c:86:cf:90:1e:54:67:27:23:b8:0d:e5:fc:96:37:05:85:9f:
        65:e7:36:19:c0:96:06:39:39:78:36:5b:3a:e7:ff:95:f9:84:
        10:3a:2b:76:69:5e:10:f1:0e:6f:7c:f6:87:2c:76:b5:16:3f:
        0b:5d:d7:ae:f4:91:fd:8f:0c:7d:91:35:3d:cd:55:01:74:fb:
        db:15:ce:9a
-----BEGIN CERTIFICATE-----
MIID6zCCAtOgAwIBAgIUQunYXeG4Qm+wfqWwMcZBqcFT3HEwDQYJKoZIhvcNAQEF
BQAwOTELMAkGA1UEBhMCQVUxFzAVBgNVBAoMDkRvZGd5IEJyb3RoZXJzMREwDwYD
VQQDDAhEb2RneSBDQTAeFw0yMzAyMDIxMzM1MjlaFw0yNDAyMDIxMzM1MjlaMF8x
CzAJBgNVBAYTAkFVMRcwFQYDVQQKDA5Eb2RneSBCcm90aGVyczESMBAGA1UEAwwJ
QnJvdGhlciAxMSMwIQYDVQQDDBpsYXN0dXBkYXRlX2dlbmVyYWxpemVkdGltZTCC
ASIwDQYJKoZIhvcNAQEBBQADggEPADCCAQoCggEBAL6VhvpxTGrqUZhQS5mhLGYV
82Dz4f9p+85IAR3+4Sw4sOO9j0tIp346xnPjq7/h2m6W9f7D5LSorbxWNNSWJXQn
wxDbNRAlHI5LgZv7QgR8bz3iOGwO5C6OKhhtMM1nKiNrN88Fn8y3WVh/usQKP4yk
rcuYnMDyj2lnD8FOM8/8hV67Xs+TsM/Z9FJ5h7H4TRVoZdW3GQhjf16xNK0Fj1rw
5OGPJfJcXGGVsFYtMSsIZXnlsTudPrlSS6xdxFhmhY2BswQo9D8vrJIBYtX9jgva
Agx6x24JHKwcskzXVLgmM7JfFPOx+T1iTUCZa7bniViX1tRN6ktoUvM8qLE1iNsC
AwEAAaOBxDCBwTAdBgNVHQ4EFgQUod8zw88+U0GnaETMqhnhhMkNvMYwdAYDVR0j
BG0wa4AUtBEz8dfiXvdTniAiEE+GBr8fyV6hPaQ7MDkxCzAJBgNVBAYTAkFVMRcw
FQYDVQQKDA5Eb2RneSBCcm90aGVyczERMA8GA1UEAwwIRG9kZ3kgQ0GCFEWp8Fp2
gsV4hx26RQfUH2/vZQL3MBIGA1UdEwEB/wQIMAYBAf8CAQEwCwYDVR0PBAQDAgEG
MAkGA1UdEgQCMAAwDQYJKoZIhvcNAQEFBQADggEBAAea6cpuueHgYMcSILDT8zq2
P1dUhv4UPMNnOEuH0nALxg2HM/AFdNgM1vPekmHfb/qSqsOOxrSDkVhN8GyMHKQO
4LcPdGr8eSRbu76N3UD0D06FcI3dRTKeRclpFAY9+oGzN1cePlM+lo3ZTco3hBL1
usBlVKxC8nSa+kghAMqTfIiPeB92DGqPKqo9OAG33iHjIeJ096m2+zOvjAJQMm00
X+250jVaX+HTnJu3CD5Bg6ZvsFyGz5AeVGcnI7gN5fyWNwWFn2XnNhnAlgY5OXg2
Wzrn/5X5hBA6K3ZpXhDxDm989ocsdrUWPwtd1670kf2PDH2RNT3NVQF0+9sVzpo=
-----END CERTIFICATE-----
