Certificate:
    Data:
        Version: 3 (0x2)
        Serial Number:
            42:e9:d8:5d:e1:b8:42:6f:b0:7e:a5:b0:31:c6:41:a9:c1:53:dc:74
        Signature Algorithm: sha1WithRSAEncryption
        Issuer: C=AU, O=Dodgy Brothers, CN=Dodgy CA
        Validity
            Not Before: Feb  2 13:35:30 2023 GMT
            Not After : Feb  2 13:35:30 2024 GMT
        Subject: C=AU, O=Dodgy Brothers, CN=Brother 1, CN=nextupdate_generalizedtime
        Subject Public Key Info:
            Public Key Algorithm: rsaEncryption
                Public-Key: (2048 bit)
                Modulus:
                    00:be:95:86:fa:71:4c:6a:ea:51:98:50:4b:99:a1:
                    2c:66:15:f3:60:f3:e1:ff:69:fb:ce:48:01:1d:fe:
                    e1:2c:38:b0:e3:bd:8f:4b:48:a7:7e:3a:c6:73:e3:
                    ab:bf:e1:da:6e:96:f5:fe:c3:e4:b4:a8:ad:bc:56:
                    34:d4:96:25:74:27:c3:10:db:35:10:25:1c:8e:4b:
                    81:9b:fb:42:04:7c:6f:3d:e2:38:6c:0e:e4:2e:8e:
                    2a:18:6d:30:cd:67:2a:23:6b:37:cf:05:9f:cc:b7:
                    59:58:7f:ba:c4:0a:3f:8c:a4:ad:cb:98:9c:c0:f2:
                    8f:69:67:0f:c1:4e:33:cf:fc:85:5e:bb:5e:cf:93:
                    b0:cf:d9:f4:52:79:87:b1:f8:4d:15:68:65:d5:b7:
                    19:08:63:7f:5e:b1:34:ad:05:8f:5a:f0:e4:e1:8f:
                    25:f2:5c:5c:61:95:b0:56:2d:31:2b:08:65:79:e5:
                    b1:3b:9d:3e:b9:52:4b:ac:5d:c4:58:66:85:8d:81:
                    b3:04:28:f4:3f:2f:ac:92:01:62:d5:fd:8e:0b:da:
                    02:0c:7a:c7:6e:09:1c:ac:1c:b2:4c:d7:54:b8:26:
                    33:b2:5f:14:f3:b1:f9:3d:62:4d:40:99:6b:b6:e7:
                    89:58:97:d6:d4:4d:ea:4b:68:52:f3:3c:a8:b1:35:
                    88:db
                Exponent: 65537 (0x10001)
        X509v3 extensions:
            X509v3 Subject Key Identifier: 
                A1:DF:33:C3:CF:3E:53:41:A7:68:44:CC:AA:19:E1:84:C9:0D:BC:C6
            X509v3 Authority Key Identifier: 
                keyid:B4:11:33:F1:D7:E2:5E:F7:53:9E:20:22:10:4F:86:06:BF:1F:C9:5E
                DirName:/C=AU/O=Dodgy Brothers/CN=Dodgy CA
                serial:45:A9:F0:5A:76:82:C5:78:87:1D:BA:45:07:D4:1F:6F:EF:65:02:F7
            X509v3 Basic Constraints: critical
                CA:TRUE, pathlen:1
            X509v3 Key Usage: 
                Certificate Sign, CRL Sign
            X509v3 Issuer Alternative Name: 
                <EMPTY>

    Signature Algorithm: sha1WithRSAEncryption
    Signature Value:
        7f:f1:f3:23:51:e0:f6:b2:65:c3:b0:08:2f:ed:15:42:f6:4d:
        63:78:41:bb:62:24:40:92:3e:20:c7:2a:69:67:53:ed:a6:d8:
        da:29:c0:dd:3b:37:e4:ad:fd:0c:ca:39:69:b1:1e:f5:27:c4:
        59:e8:08:e5:1d:19:d4:56:21:8e:7b:e0:c4:1f:8d:04:30:d1:
        21:ab:64:a3:af:43:8c:19:6e:47:d7:c7:55:e1:f5:fb:3e:1c:
        99:6f:cc:79:3b:3f:01:c6:ea:bf:64:74:6f:13:14:33:6b:62:
        27:1c:03:6b:a7:d9:36:90:41:49:20:a0:8d:ad:ca:d4:a9:85:
        62:e2:9d:22:1a:c2:33:2d:c6:e8:2c:fd:7f:e2:f7:8c:51:a9:
        2b:56:4b:45:47:51:07:ef:84:cb:c1:55:15:a1:29:78:b5:ad:
        d1:1f:f9:3e:cf:3a:fa:51:8d:e1:d6:4b:2f:7b:1b:62:d4:35:
        30:78:11:f1:a6:09:b1:fc:40:23:b1:a4:01:3c:2d:d7:27:f9:
        ff:db:0d:af:6c:56:fa:57:db:f8:2d:5b:8d:ed:40:ed:cc:83:
        59:9b:c3:8f:73:ec:0d:85:ab:e8:4d:ab:74:36:4b:b6:d8:c4:
        b6:9c:14:b3:0e:39:18:0e:35:b0:1d:77:3d:37:5e:18:e2:48:
        ca:66:51:82
-----BEGIN CERTIFICATE-----
MIID6zCCAtOgAwIBAgIUQunYXeG4Qm+wfqWwMcZBqcFT3HQwDQYJKoZIhvcNAQEF
BQAwOTELMAkGA1UEBhMCQVUxFzAVBgNVBAoMDkRvZGd5IEJyb3RoZXJzMREwDwYD
VQQDDAhEb2RneSBDQTAeFw0yMzAyMDIxMzM1MzBaFw0yNDAyMDIxMzM1MzBaMF8x
CzAJBgNVBAYTAkFVMRcwFQYDVQQKDA5Eb2RneSBCcm90aGVyczESMBAGA1UEAwwJ
QnJvdGhlciAxMSMwIQYDVQQDDBpuZXh0dXBkYXRlX2dlbmVyYWxpemVkdGltZTCC
ASIwDQYJKoZIhvcNAQEBBQADggEPADCCAQoCggEBAL6VhvpxTGrqUZhQS5mhLGYV
82Dz4f9p+85IAR3+4Sw4sOO9j0tIp346xnPjq7/h2m6W9f7D5LSorbxWNNSWJXQn
wxDbNRAlHI5LgZv7QgR8bz3iOGwO5C6OKhhtMM1nKiNrN88Fn8y3WVh/usQKP4yk
rcuYnMDyj2lnD8FOM8/8hV67Xs+TsM/Z9FJ5h7H4TRVoZdW3GQhjf16xNK0Fj1rw
5OGPJfJcXGGVsFYtMSsIZXnlsTudPrlSS6xdxFhmhY2BswQo9D8vrJIBYtX9jgva
Agx6x24JHKwcskzXVLgmM7JfFPOx+T1iTUCZa7bniViX1tRN6ktoUvM8qLE1iNsC
AwEAAaOBxDCBwTAdBgNVHQ4EFgQUod8zw88+U0GnaETMqhnhhMkNvMYwdAYDVR0j
BG0wa4AUtBEz8dfiXvdTniAiEE+GBr8fyV6hPaQ7MDkxCzAJBgNVBAYTAkFVMRcw
FQYDVQQKDA5Eb2RneSBCcm90aGVyczERMA8GA1UEAwwIRG9kZ3kgQ0GCFEWp8Fp2
gsV4hx26RQfUH2/vZQL3MBIGA1UdEwEB/wQIMAYBAf8CAQEwCwYDVR0PBAQDAgEG
MAkGA1UdEgQCMAAwDQYJKoZIhvcNAQEFBQADggEBAH/x8yNR4PayZcOwCC/tFUL2
TWN4QbtiJECSPiDHKmlnU+2m2NopwN07N+St/QzKOWmxHvUnxFnoCOUdGdRWIY57
4MQfjQQw0SGrZKOvQ4wZbkfXx1Xh9fs+HJlvzHk7PwHG6r9kdG8TFDNrYiccA2un
2TaQQUkgoI2tytSphWLinSIawjMtxugs/X/i94xRqStWS0VHUQfvhMvBVRWhKXi1
rdEf+T7POvpRjeHWSy97G2LUNTB4EfGmCbH8QCOxpAE8Ldcn+f/bDa9sVvpX2/gt
W43tQO3Mg1mbw49z7A2Fq+hNq3Q2S7bYxLacFLMOORgONbAddz03XhjiSMpmUYI=
-----END CERTIFICATE-----
