Certificate:
    Data:
        Version: 3 (0x2)
        Serial Number:
            42:e9:d8:5d:e1:b8:42:6f:b0:7e:a5:b0:31:c6:41:a9:c1:53:dc:73
        Signature Algorithm: sha1WithRSAEncryption
        Issuer: C=AU, O=Dodgy Brothers, CN=Dodgy CA
        Validity
            Not Before: Feb  2 13:35:30 2023 GMT
            Not After : Feb  2 13:35:30 2024 GMT
        Subject: C=AU, O=Dodgy Brothers, CN=Brother 1, CN=nextupdate_utctime
        Subject Public Key Info:
            Public Key Algorithm: rsaEncryption
                Public-Key: (2048 bit)
                Modulus:
                    00:be:95:86:fa:71:4c:6a:ea:51:98:50:4b:99:a1:
                    2c:66:15:f3:60:f3:e1:ff:69:fb:ce:48:01:1d:fe:
                    e1:2c:38:b0:e3:bd:8f:4b:48:a7:7e:3a:c6:73:e3:
                    ab:bf:e1:da:6e:96:f5:fe:c3:e4:b4:a8:ad:bc:56:
                    34:d4:96:25:74:27:c3:10:db:35:10:25:1c:8e:4b:
                    81:9b:fb:42:04:7c:6f:3d:e2:38:6c:0e:e4:2e:8e:
                    2a:18:6d:30:cd:67:2a:23:6b:37:cf:05:9f:cc:b7:
                    59:58:7f:ba:c4:0a:3f:8c:a4:ad:cb:98:9c:c0:f2:
                    8f:69:67:0f:c1:4e:33:cf:fc:85:5e:bb:5e:cf:93:
                    b0:cf:d9:f4:52:79:87:b1:f8:4d:15:68:65:d5:b7:
                    19:08:63:7f:5e:b1:34:ad:05:8f:5a:f0:e4:e1:8f:
                    25:f2:5c:5c:61:95:b0:56:2d:31:2b:08:65:79:e5:
                    b1:3b:9d:3e:b9:52:4b:ac:5d:c4:58:66:85:8d:81:
                    b3:04:28:f4:3f:2f:ac:92:01:62:d5:fd:8e:0b:da:
                    02:0c:7a:c7:6e:09:1c:ac:1c:b2:4c:d7:54:b8:26:
                    33:b2:5f:14:f3:b1:f9:3d:62:4d:40:99:6b:b6:e7:
                    89:58:97:d6:d4:4d:ea:4b:68:52:f3:3c:a8:b1:35:
                    88:db
                Exponent: 65537 (0x10001)
        X509v3 extensions:
            X509v3 Subject Key Identifier: 
                A1:DF:33:C3:CF:3E:53:41:A7:68:44:CC:AA:19:E1:84:C9:0D:BC:C6
            X509v3 Authority Key Identifier: 
                keyid:B4:11:33:F1:D7:E2:5E:F7:53:9E:20:22:10:4F:86:06:BF:1F:C9:5E
                DirName:/C=AU/O=Dodgy Brothers/CN=Dodgy CA
                serial:45:A9:F0:5A:76:82:C5:78:87:1D:BA:45:07:D4:1F:6F:EF:65:02:F7
            X509v3 Basic Constraints: critical
                CA:TRUE, pathlen:1
            X509v3 Key Usage: 
                Certificate Sign, CRL Sign
            X509v3 Issuer Alternative Name: 
                <EMPTY>

    Signature Algorithm: sha1WithRSAEncryption
    Signature Value:
        93:06:b7:1f:0c:f6:22:ad:fb:6f:10:e5:42:57:a8:62:e1:55:
        9e:35:8f:f0:82:1a:87:33:01:02:d7:04:a2:9d:b3:8c:ec:79:
        6c:c2:a7:9c:19:ce:9a:ca:09:ea:99:3c:f7:a0:43:2d:6d:7e:
        2e:24:6e:3c:3f:ee:55:3a:eb:ff:d2:b1:fa:91:2d:a3:01:04:
        24:ca:e7:3c:ee:d5:ee:1c:b7:01:fa:2d:38:60:5c:af:f3:98:
        1e:9d:f5:e6:a0:1d:a1:a5:ad:fa:99:f1:b3:6d:c0:87:92:36:
        95:1d:07:f3:de:cb:06:fc:8c:80:6e:a4:6a:f3:3c:6a:68:f4:
        51:c6:42:0e:d1:19:c8:ac:5b:37:0d:fc:f0:92:00:01:86:e5:
        92:c7:7f:b6:9b:b1:76:ec:8a:69:ba:4e:2c:be:f6:bc:de:01:
        58:83:c8:21:00:94:98:94:56:0a:6a:82:76:ad:f4:10:0f:7b:
        ae:24:06:f8:d5:fc:eb:93:8a:ff:f5:39:45:ed:18:ad:54:69:
        36:80:8a:4c:52:8c:08:18:8f:35:c5:61:af:f3:e7:48:7d:4a:
        48:f4:f5:af:ad:be:03:d8:03:2f:93:ee:3d:c3:b8:37:39:bf:
        21:1e:58:13:cb:7f:24:05:14:b7:d9:a0:c3:51:4c:49:39:3e:
        f1:09:c7:28
-----BEGIN CERTIFICATE-----
MIID4zCCAsugAwIBAgIUQunYXeG4Qm+wfqWwMcZBqcFT3HMwDQYJKoZIhvcNAQEF
BQAwOTELMAkGA1UEBhMCQVUxFzAVBgNVBAoMDkRvZGd5IEJyb3RoZXJzMREwDwYD
VQQDDAhEb2RneSBDQTAeFw0yMzAyMDIxMzM1MzBaFw0yNDAyMDIxMzM1MzBaMFcx
CzAJBgNVBAYTAkFVMRcwFQYDVQQKDA5Eb2RneSBCcm90aGVyczESMBAGA1UEAwwJ
QnJvdGhlciAxMRswGQYDVQQDDBJuZXh0dXBkYXRlX3V0Y3RpbWUwggEiMA0GCSqG
SIb3DQEBAQUAA4IBDwAwggEKAoIBAQC+lYb6cUxq6lGYUEuZoSxmFfNg8+H/afvO
SAEd/uEsOLDjvY9LSKd+OsZz46u/4dpulvX+w+S0qK28VjTUliV0J8MQ2zUQJRyO
S4Gb+0IEfG894jhsDuQujioYbTDNZyojazfPBZ/Mt1lYf7rECj+MpK3LmJzA8o9p
Zw/BTjPP/IVeu17Pk7DP2fRSeYex+E0VaGXVtxkIY39esTStBY9a8OThjyXyXFxh
lbBWLTErCGV55bE7nT65UkusXcRYZoWNgbMEKPQ/L6ySAWLV/Y4L2gIMesduCRys
HLJM11S4JjOyXxTzsfk9Yk1AmWu254lYl9bUTepLaFLzPKixNYjbAgMBAAGjgcQw
gcEwHQYDVR0OBBYEFKHfM8PPPlNBp2hEzKoZ4YTJDbzGMHQGA1UdIwRtMGuAFLQR
M/HX4l73U54gIhBPhga/H8leoT2kOzA5MQswCQYDVQQGEwJBVTEXMBUGA1UECgwO
RG9kZ3kgQnJvdGhlcnMxETAPBgNVBAMMCERvZGd5IENBghRFqfBadoLFeIcdukUH
1B9v72UC9zASBgNVHRMBAf8ECDAGAQH/AgEBMAsGA1UdDwQEAwIBBjAJBgNVHRIE
AjAAMA0GCSqGSIb3DQEBBQUAA4IBAQCTBrcfDPYirftvEOVCV6hi4VWeNY/wghqH
MwEC1wSinbOM7HlswqecGc6aygnqmTz3oEMtbX4uJG48P+5VOuv/0rH6kS2jAQQk
yuc87tXuHLcB+i04YFyv85genfXmoB2hpa36mfGzbcCHkjaVHQfz3ssG/IyAbqRq
8zxqaPRRxkIO0RnIrFs3DfzwkgABhuWSx3+2m7F27Ippuk4svva83gFYg8ghAJSY
lFYKaoJ2rfQQD3uuJAb41fzrk4r/9TlF7RitVGk2gIpMUowIGI81xWGv8+dIfUpI
9PWvrb4D2AMvk+49w7g3Ob8hHlgTy38kBRS32aDDUUxJOT7xCcco
-----END CERTIFICATE-----
