Certificate:
    Data:
        Version: 3 (0x2)
        Serial Number:
            42:e9:d8:5d:e1:b8:42:6f:b0:7e:a5:b0:31:c6:41:a9:c1:53:dc:6e
        Signature Algorithm: sha1WithRSAEncryption
        Issuer: C=AU, O=Dodgy Brothers, CN=Dodgy CA
        Validity
            Not Before: Feb  2 13:35:27 2023 GMT
            Not After : Feb  2 13:35:27 2024 GMT
        Subject: C=AU, O=Dodgy Brothers, CN=Brother 1, CN=notimes
        Subject Public Key Info:
            Public Key Algorithm: rsaEncryption
                Public-Key: (2048 bit)
                Modulus:
                    00:be:95:86:fa:71:4c:6a:ea:51:98:50:4b:99:a1:
                    2c:66:15:f3:60:f3:e1:ff:69:fb:ce:48:01:1d:fe:
                    e1:2c:38:b0:e3:bd:8f:4b:48:a7:7e:3a:c6:73:e3:
                    ab:bf:e1:da:6e:96:f5:fe:c3:e4:b4:a8:ad:bc:56:
                    34:d4:96:25:74:27:c3:10:db:35:10:25:1c:8e:4b:
                    81:9b:fb:42:04:7c:6f:3d:e2:38:6c:0e:e4:2e:8e:
                    2a:18:6d:30:cd:67:2a:23:6b:37:cf:05:9f:cc:b7:
                    59:58:7f:ba:c4:0a:3f:8c:a4:ad:cb:98:9c:c0:f2:
                    8f:69:67:0f:c1:4e:33:cf:fc:85:5e:bb:5e:cf:93:
                    b0:cf:d9:f4:52:79:87:b1:f8:4d:15:68:65:d5:b7:
                    19:08:63:7f:5e:b1:34:ad:05:8f:5a:f0:e4:e1:8f:
                    25:f2:5c:5c:61:95:b0:56:2d:31:2b:08:65:79:e5:
                    b1:3b:9d:3e:b9:52:4b:ac:5d:c4:58:66:85:8d:81:
                    b3:04:28:f4:3f:2f:ac:92:01:62:d5:fd:8e:0b:da:
                    02:0c:7a:c7:6e:09:1c:ac:1c:b2:4c:d7:54:b8:26:
                    33:b2:5f:14:f3:b1:f9:3d:62:4d:40:99:6b:b6:e7:
                    89:58:97:d6:d4:4d:ea:4b:68:52:f3:3c:a8:b1:35:
                    88:db
                Exponent: 65537 (0x10001)
        X509v3 extensions:
            X509v3 Subject Key Identifier: 
                A1:DF:33:C3:CF:3E:53:41:A7:68:44:CC:AA:19:E1:84:C9:0D:BC:C6
            X509v3 Authority Key Identifier: 
                keyid:B4:11:33:F1:D7:E2:5E:F7:53:9E:20:22:10:4F:86:06:BF:1F:C9:5E
                DirName:/C=AU/O=Dodgy Brothers/CN=Dodgy CA
                serial:45:A9:F0:5A:76:82:C5:78:87:1D:BA:45:07:D4:1F:6F:EF:65:02:F7
            X509v3 Basic Constraints: critical
                CA:TRUE, pathlen:1
            X509v3 Key Usage: 
                Certificate Sign, CRL Sign
            X509v3 Issuer Alternative Name: 
                <EMPTY>

    Signature Algorithm: sha1WithRSAEncryption
    Signature Value:
        4b:f9:4e:b0:fd:f4:24:83:64:f2:cb:65:e9:71:da:33:c5:e6:
        d8:3f:bc:49:32:24:d3:72:79:f2:15:a5:61:2c:e8:37:7f:63:
        65:e6:34:26:d3:d7:3d:58:d7:00:a6:8d:3d:6b:07:c5:e3:40:
        92:47:13:27:ff:47:84:b5:90:cd:65:50:8b:20:98:19:36:b4:
        2c:df:cd:ea:1c:08:1f:84:e5:97:7d:5b:96:cc:3f:c5:d3:6e:
        05:7b:61:32:b7:a0:77:91:2f:62:be:78:65:03:bb:ae:64:53:
        34:52:53:9c:fd:3a:c9:e1:b4:6a:1e:87:4d:56:0f:4d:b4:85:
        cb:b0:3b:66:5b:bb:32:f8:e6:87:59:3d:f6:ca:43:f9:46:6c:
        77:30:92:54:30:19:dc:b8:53:8b:21:ff:d8:20:f3:cb:9b:5f:
        b5:bd:fa:36:6c:e1:cb:0a:59:df:90:33:69:db:21:c4:46:a1:
        af:ce:cd:5f:c2:83:e6:c9:3b:22:f6:e2:93:22:f1:2a:69:6c:
        f8:63:61:67:e5:63:aa:58:73:6d:24:95:ae:18:9d:89:80:5b:
        01:c5:4a:07:41:79:f3:0f:82:92:0c:f4:e9:bc:35:4b:59:96:
        f9:92:e4:eb:c1:67:fc:95:71:5e:c9:d8:70:8d:96:5f:f5:9d:
        80:ac:02:9b
-----BEGIN CERTIFICATE-----
MIID2DCCAsCgAwIBAgIUQunYXeG4Qm+wfqWwMcZBqcFT3G4wDQYJKoZIhvcNAQEF
BQAwOTELMAkGA1UEBhMCQVUxFzAVBgNVBAoMDkRvZGd5IEJyb3RoZXJzMREwDwYD
VQQDDAhEb2RneSBDQTAeFw0yMzAyMDIxMzM1MjdaFw0yNDAyMDIxMzM1MjdaMEwx
CzAJBgNVBAYTAkFVMRcwFQYDVQQKDA5Eb2RneSBCcm90aGVyczESMBAGA1UEAwwJ
QnJvdGhlciAxMRAwDgYDVQQDDAdub3RpbWVzMIIBIjANBgkqhkiG9w0BAQEFAAOC
AQ8AMIIBCgKCAQEAvpWG+nFMaupRmFBLmaEsZhXzYPPh/2n7zkgBHf7hLDiw472P
S0infjrGc+Orv+Habpb1/sPktKitvFY01JYldCfDENs1ECUcjkuBm/tCBHxvPeI4
bA7kLo4qGG0wzWcqI2s3zwWfzLdZWH+6xAo/jKSty5icwPKPaWcPwU4zz/yFXrte
z5Owz9n0UnmHsfhNFWhl1bcZCGN/XrE0rQWPWvDk4Y8l8lxcYZWwVi0xKwhleeWx
O50+uVJLrF3EWGaFjYGzBCj0Py+skgFi1f2OC9oCDHrHbgkcrByyTNdUuCYzsl8U
87H5PWJNQJlrtueJWJfW1E3qS2hS8zyosTWI2wIDAQABo4HEMIHBMB0GA1UdDgQW
BBSh3zPDzz5TQadoRMyqGeGEyQ28xjB0BgNVHSMEbTBrgBS0ETPx1+Je91OeICIQ
T4YGvx/JXqE9pDswOTELMAkGA1UEBhMCQVUxFzAVBgNVBAoMDkRvZGd5IEJyb3Ro
ZXJzMREwDwYDVQQDDAhEb2RneSBDQYIURanwWnaCxXiHHbpFB9Qfb+9lAvcwEgYD
VR0TAQH/BAgwBgEB/wIBATALBgNVHQ8EBAMCAQYwCQYDVR0SBAIwADANBgkqhkiG
9w0BAQUFAAOCAQEAS/lOsP30JINk8stl6XHaM8Xm2D+8STIk03J58hWlYSzoN39j
ZeY0JtPXPVjXAKaNPWsHxeNAkkcTJ/9HhLWQzWVQiyCYGTa0LN/N6hwIH4Tll31b
lsw/xdNuBXthMregd5EvYr54ZQO7rmRTNFJTnP06yeG0ah6HTVYPTbSFy7A7Zlu7
Mvjmh1k99spD+UZsdzCSVDAZ3LhTiyH/2CDzy5tftb36NmzhywpZ35AzadshxEah
r87NX8KD5sk7IvbikyLxKmls+GNhZ+VjqlhzbSSVrhidiYBbAcVKB0F58w+Ckgz0
6bw1S1mW+ZLk68Fn/JVxXsnYcI2WX/WdgKwCmw==
-----END CERTIFICATE-----
