Certificate:
    Data:
        Version: 3 (0x2)
        Serial Number:
            42:e9:d8:5d:e1:b8:42:6f:b0:7e:a5:b0:31:c6:41:a9:c1:53:dc:6c
        Signature Algorithm: sha256WithRSAEncryption
        Issuer: C=AU, O=Dodgy Brothers, CN=Dodgy CA
        Validity
            Not Before: Feb  2 13:35:27 2023 GMT
            Not After : Feb  2 13:35:27 2024 GMT
        Subject: C=AU, O=Dodgy Brothers, CN=Brother 1, CN=Brother 2
        Subject Public Key Info:
            Public Key Algorithm: rsaEncryption
                Public-Key: (2048 bit)
                Modulus:
                    00:a8:ff:89:58:61:85:ae:de:db:2c:0f:d5:73:fb:
                    e2:b7:a8:1b:7a:75:60:2b:d4:7d:3c:73:76:b5:ae:
                    de:93:2f:7f:24:90:6d:c9:1c:f4:8a:38:cd:9f:a2:
                    80:16:56:cb:b4:2c:bb:93:e5:17:1f:ff:0d:c6:43:
                    fe:31:34:f8:28:d8:75:e9:a3:bb:88:82:ef:a3:72:
                    e2:53:62:05:45:4d:e0:31:97:ef:aa:9d:10:d2:58:
                    0d:9e:06:9e:32:bb:1b:08:56:5d:65:0f:3f:66:8e:
                    c2:36:a0:11:ff:c0:59:35:fd:49:1c:dd:1c:42:33:
                    06:78:ae:04:38:23:e5:e7:75:67:d3:94:ad:5a:a9:
                    40:1f:ac:59:10:f5:0c:c1:64:ad:4a:c4:c6:35:53:
                    b3:96:6a:82:1b:15:8b:d1:99:ab:e4:9e:6f:94:aa:
                    d2:96:e5:57:fb:8c:91:64:8a:3c:24:16:c6:d2:19:
                    be:82:60:13:3b:62:b0:ed:3e:1d:b3:ca:f9:6b:df:
                    31:b9:7a:9e:4b:47:68:a7:29:c7:3f:4a:e2:22:27:
                    b4:ef:90:63:d7:ef:d0:72:49:3e:5b:ad:b9:1b:d4:
                    2b:6f:86:68:dd:d5:73:12:b8:43:c9:dc:41:0f:a2:
                    a3:46:4f:8b:67:88:84:0f:61:fe:79:34:1f:4a:89:
                    1f:b7
                Exponent: 65537 (0x10001)
        X509v3 extensions:
            X509v3 Basic Constraints: 
                CA:FALSE
            X509v3 Subject Key Identifier: 
                E7:9B:E2:2A:AD:8A:6C:3A:CB:76:51:E5:8E:07:98:22:97:E1:73:A2
            X509v3 Authority Key Identifier: 
                B4:11:33:F1:D7:E2:5E:F7:53:9E:20:22:10:4F:86:06:BF:1F:C9:5E
    Signature Algorithm: sha256WithRSAEncryption
    Signature Value:
        69:10:61:fb:3d:f7:f1:75:08:a4:31:8b:8c:41:25:ab:70:46:
        37:93:6e:fd:07:a2:0d:c5:fa:dd:b4:9a:d5:d4:5f:fb:05:f6:
        77:5d:96:8d:a2:e0:b7:7e:df:b8:aa:9b:9d:c0:ef:b0:dc:d4:
        52:d6:22:ba:3c:98:fa:82:4f:25:69:c1:1a:93:b9:dd:df:f2:
        c4:bd:cd:f8:eb:88:a1:20:4a:71:80:3d:98:e7:f0:8a:58:91:
        6c:b7:5f:8e:74:8d:c7:ec:3f:f5:f8:2b:d5:d6:2f:a2:18:1b:
        a3:c8:51:70:13:db:3a:e8:0a:ba:7b:d0:c9:86:a8:d4:9e:b6:
        6f:7f:ee:ba:ca:88:a9:cc:7f:c8:99:3f:20:9e:ac:c8:1d:c6:
        73:3e:c6:43:00:bb:b6:3f:72:a1:42:5d:62:88:41:f6:90:22:
        04:cd:25:92:68:37:c5:9b:4d:b5:89:21:c0:8d:2a:71:b8:d3:
        aa:28:91:1f:cb:b1:f3:34:07:b4:2c:ab:5b:63:4a:58:88:27:
        23:fe:27:eb:c9:8f:48:42:10:d2:6b:03:94:1a:0a:44:5d:6d:
        b8:bb:90:b6:3f:81:cd:49:9d:08:5a:66:c3:30:a6:8e:4a:41:
        d2:94:2a:5c:7a:b7:67:1b:1a:67:84:9a:58:73:8b:2c:dc:4c:
        ad:80:6c:7c
-----BEGIN CERTIFICATE-----
MIIDYjCCAkqgAwIBAgIUQunYXeG4Qm+wfqWwMcZBqcFT3GwwDQYJKoZIhvcNAQEL
BQAwOTELMAkGA1UEBhMCQVUxFzAVBgNVBAoMDkRvZGd5IEJyb3RoZXJzMREwDwYD
VQQDDAhEb2RneSBDQTAeFw0yMzAyMDIxMzM1MjdaFw0yNDAyMDIxMzM1MjdaME4x
CzAJBgNVBAYTAkFVMRcwFQYDVQQKDA5Eb2RneSBCcm90aGVyczESMBAGA1UEAwwJ
QnJvdGhlciAxMRIwEAYDVQQDDAlCcm90aGVyIDIwggEiMA0GCSqGSIb3DQEBAQUA
A4IBDwAwggEKAoIBAQCo/4lYYYWu3tssD9Vz++K3qBt6dWAr1H08c3a1rt6TL38k
kG3JHPSKOM2fooAWVsu0LLuT5Rcf/w3GQ/4xNPgo2HXpo7uIgu+jcuJTYgVFTeAx
l++qnRDSWA2eBp4yuxsIVl1lDz9mjsI2oBH/wFk1/Ukc3RxCMwZ4rgQ4I+XndWfT
lK1aqUAfrFkQ9QzBZK1KxMY1U7OWaoIbFYvRmavknm+UqtKW5Vf7jJFkijwkFsbS
Gb6CYBM7YrDtPh2zyvlr3zG5ep5LR2inKcc/SuIiJ7TvkGPX79ByST5brbkb1Ctv
hmjd1XMSuEPJ3EEPoqNGT4tniIQPYf55NB9KiR+3AgMBAAGjTTBLMAkGA1UdEwQC
MAAwHQYDVR0OBBYEFOeb4iqtimw6y3ZR5Y4HmCKX4XOiMB8GA1UdIwQYMBaAFLQR
M/HX4l73U54gIhBPhga/H8leMA0GCSqGSIb3DQEBCwUAA4IBAQBpEGH7PffxdQik
MYuMQSWrcEY3k279B6INxfrdtJrV1F/7BfZ3XZaNouC3ft+4qpudwO+w3NRS1iK6
PJj6gk8lacEak7nd3/LEvc3464ihIEpxgD2Y5/CKWJFst1+OdI3H7D/1+CvV1i+i
GBujyFFwE9s66Aq6e9DJhqjUnrZvf+66yoipzH/ImT8gnqzIHcZzPsZDALu2P3Kh
Ql1iiEH2kCIEzSWSaDfFm021iSHAjSpxuNOqKJEfy7HzNAe0LKtbY0pYiCcj/ifr
yY9IQhDSawOUGgpEXW24u5C2P4HNSZ0IWmbDMKaOSkHSlCpcerdnGxpnhJpYc4ss
3EytgGx8
-----END CERTIFICATE-----
