Certificate:
    Data:
        Version: 3 (0x2)
        Serial Number:
            42:e9:d8:5d:e1:b8:42:6f:b0:7e:a5:b0:31:c6:41:a9:c1:53:dc:6f
        Signature Algorithm: sha1WithRSAEncryption
        Issuer: C=AU, O=Dodgy Brothers, CN=Dodgy CA
        Validity
            Not Before: Feb  2 13:35:28 2023 GMT
            Not After : Feb  2 13:35:28 2024 GMT
        Subject: C=AU, O=Dodgy Brothers, CN=Brother 1, CN=lastupdate_invalid
        Subject Public Key Info:
            Public Key Algorithm: rsaEncryption
                Public-Key: (2048 bit)
                Modulus:
                    00:be:95:86:fa:71:4c:6a:ea:51:98:50:4b:99:a1:
                    2c:66:15:f3:60:f3:e1:ff:69:fb:ce:48:01:1d:fe:
                    e1:2c:38:b0:e3:bd:8f:4b:48:a7:7e:3a:c6:73:e3:
                    ab:bf:e1:da:6e:96:f5:fe:c3:e4:b4:a8:ad:bc:56:
                    34:d4:96:25:74:27:c3:10:db:35:10:25:1c:8e:4b:
                    81:9b:fb:42:04:7c:6f:3d:e2:38:6c:0e:e4:2e:8e:
                    2a:18:6d:30:cd:67:2a:23:6b:37:cf:05:9f:cc:b7:
                    59:58:7f:ba:c4:0a:3f:8c:a4:ad:cb:98:9c:c0:f2:
                    8f:69:67:0f:c1:4e:33:cf:fc:85:5e:bb:5e:cf:93:
                    b0:cf:d9:f4:52:79:87:b1:f8:4d:15:68:65:d5:b7:
                    19:08:63:7f:5e:b1:34:ad:05:8f:5a:f0:e4:e1:8f:
                    25:f2:5c:5c:61:95:b0:56:2d:31:2b:08:65:79:e5:
                    b1:3b:9d:3e:b9:52:4b:ac:5d:c4:58:66:85:8d:81:
                    b3:04:28:f4:3f:2f:ac:92:01:62:d5:fd:8e:0b:da:
                    02:0c:7a:c7:6e:09:1c:ac:1c:b2:4c:d7:54:b8:26:
                    33:b2:5f:14:f3:b1:f9:3d:62:4d:40:99:6b:b6:e7:
                    89:58:97:d6:d4:4d:ea:4b:68:52:f3:3c:a8:b1:35:
                    88:db
                Exponent: 65537 (0x10001)
        X509v3 extensions:
            X509v3 Subject Key Identifier: 
                A1:DF:33:C3:CF:3E:53:41:A7:68:44:CC:AA:19:E1:84:C9:0D:BC:C6
            X509v3 Authority Key Identifier: 
                keyid:B4:11:33:F1:D7:E2:5E:F7:53:9E:20:22:10:4F:86:06:BF:1F:C9:5E
                DirName:/C=AU/O=Dodgy Brothers/CN=Dodgy CA
                serial:45:A9:F0:5A:76:82:C5:78:87:1D:BA:45:07:D4:1F:6F:EF:65:02:F7
            X509v3 Basic Constraints: critical
                CA:TRUE, pathlen:1
            X509v3 Key Usage: 
                Certificate Sign, CRL Sign
            X509v3 Issuer Alternative Name: 
                <EMPTY>

    Signature Algorithm: sha1WithRSAEncryption
    Signature Value:
        33:d7:8a:20:02:f6:0e:de:a9:72:44:a9:03:8a:ca:5d:a4:4f:
        4d:17:c3:fe:81:86:0b:57:b1:2b:99:04:bf:45:50:eb:5a:30:
        13:05:9b:88:77:b2:91:12:5d:6b:84:9e:0b:42:52:a7:34:ea:
        2b:ee:63:cb:f4:4a:b5:0e:75:f2:71:c5:26:8b:fe:7c:cb:6d:
        e2:2e:f9:dc:03:d8:06:94:7e:86:db:ff:76:3f:3c:fe:bd:c9:
        cf:3a:9d:02:8f:49:0b:26:6b:09:cc:cc:5c:89:87:ef:6d:45:
        91:1b:89:0f:b9:31:da:91:f7:a8:c3:43:12:52:e4:28:71:9c:
        68:f7:5e:94:de:70:7e:41:15:93:d4:94:81:3f:e6:bd:aa:59:
        38:d5:a2:4f:db:31:6c:2d:ef:73:aa:28:a1:c5:a2:4f:d3:43:
        50:b9:15:a8:c4:ed:e4:c4:42:97:c5:45:5a:c9:f8:d9:bf:71:
        b9:87:76:7b:75:b8:06:b4:a3:26:dc:73:c6:b0:eb:64:c9:3c:
        0b:d2:17:14:4e:13:2d:27:64:ac:0f:38:44:6f:e7:00:01:33:
        c1:7c:b8:f2:e4:4d:52:8e:19:a5:db:3b:84:66:1a:81:28:58:
        5d:ad:8b:d9:8d:59:88:14:b8:75:88:fa:95:f1:c9:c2:3d:b8:
        a1:09:7e:0a
-----BEGIN CERTIFICATE-----
MIID4zCCAsugAwIBAgIUQunYXeG4Qm+wfqWwMcZBqcFT3G8wDQYJKoZIhvcNAQEF
BQAwOTELMAkGA1UEBhMCQVUxFzAVBgNVBAoMDkRvZGd5IEJyb3RoZXJzMREwDwYD
VQQDDAhEb2RneSBDQTAeFw0yMzAyMDIxMzM1MjhaFw0yNDAyMDIxMzM1MjhaMFcx
CzAJBgNVBAYTAkFVMRcwFQYDVQQKDA5Eb2RneSBCcm90aGVyczESMBAGA1UEAwwJ
QnJvdGhlciAxMRswGQYDVQQDDBJsYXN0dXBkYXRlX2ludmFsaWQwggEiMA0GCSqG
SIb3DQEBAQUAA4IBDwAwggEKAoIBAQC+lYb6cUxq6lGYUEuZoSxmFfNg8+H/afvO
SAEd/uEsOLDjvY9LSKd+OsZz46u/4dpulvX+w+S0qK28VjTUliV0J8MQ2zUQJRyO
S4Gb+0IEfG894jhsDuQujioYbTDNZyojazfPBZ/Mt1lYf7rECj+MpK3LmJzA8o9p
Zw/BTjPP/IVeu17Pk7DP2fRSeYex+E0VaGXVtxkIY39esTStBY9a8OThjyXyXFxh
lbBWLTErCGV55bE7nT65UkusXcRYZoWNgbMEKPQ/L6ySAWLV/Y4L2gIMesduCRys
HLJM11S4JjOyXxTzsfk9Yk1AmWu254lYl9bUTepLaFLzPKixNYjbAgMBAAGjgcQw
gcEwHQYDVR0OBBYEFKHfM8PPPlNBp2hEzKoZ4YTJDbzGMHQGA1UdIwRtMGuAFLQR
M/HX4l73U54gIhBPhga/H8leoT2kOzA5MQswCQYDVQQGEwJBVTEXMBUGA1UECgwO
RG9kZ3kgQnJvdGhlcnMxETAPBgNVBAMMCERvZGd5IENBghRFqfBadoLFeIcdukUH
1B9v72UC9zASBgNVHRMBAf8ECDAGAQH/AgEBMAsGA1UdDwQEAwIBBjAJBgNVHRIE
AjAAMA0GCSqGSIb3DQEBBQUAA4IBAQAz14ogAvYO3qlyRKkDispdpE9NF8P+gYYL
V7ErmQS/RVDrWjATBZuId7KREl1rhJ4LQlKnNOor7mPL9Eq1DnXyccUmi/58y23i
LvncA9gGlH6G2/92Pzz+vcnPOp0Cj0kLJmsJzMxciYfvbUWRG4kPuTHakfeow0MS
UuQocZxo916U3nB+QRWT1JSBP+a9qlk41aJP2zFsLe9zqiihxaJP00NQuRWoxO3k
xEKXxUVayfjZv3G5h3Z7dbgGtKMm3HPGsOtkyTwL0hcUThMtJ2SsDzhEb+cAATPB
fLjy5E1Sjhml2zuEZhqBKFhdrYvZjVmIFLh1iPqV8cnCPbihCX4K
-----END CERTIFICATE-----
