Certificate:
    Data:
        Version: 3 (0x2)
        Serial Number:
            42:e9:d8:5d:e1:b8:42:6f:b0:7e:a5:b0:31:c6:41:a9:c1:53:dc:72
        Signature Algorithm: sha1WithRSAEncryption
        Issuer: C=AU, O=Dodgy Brothers, CN=Dodgy CA
        Validity
            Not Before: Feb  2 13:35:29 2023 GMT
            Not After : Feb  2 13:35:29 2024 GMT
        Subject: C=AU, O=Dodgy Brothers, CN=Brother 1, CN=nextupdate_invalid
        Subject Public Key Info:
            Public Key Algorithm: rsaEncryption
                Public-Key: (2048 bit)
                Modulus:
                    00:be:95:86:fa:71:4c:6a:ea:51:98:50:4b:99:a1:
                    2c:66:15:f3:60:f3:e1:ff:69:fb:ce:48:01:1d:fe:
                    e1:2c:38:b0:e3:bd:8f:4b:48:a7:7e:3a:c6:73:e3:
                    ab:bf:e1:da:6e:96:f5:fe:c3:e4:b4:a8:ad:bc:56:
                    34:d4:96:25:74:27:c3:10:db:35:10:25:1c:8e:4b:
                    81:9b:fb:42:04:7c:6f:3d:e2:38:6c:0e:e4:2e:8e:
                    2a:18:6d:30:cd:67:2a:23:6b:37:cf:05:9f:cc:b7:
                    59:58:7f:ba:c4:0a:3f:8c:a4:ad:cb:98:9c:c0:f2:
                    8f:69:67:0f:c1:4e:33:cf:fc:85:5e:bb:5e:cf:93:
                    b0:cf:d9:f4:52:79:87:b1:f8:4d:15:68:65:d5:b7:
                    19:08:63:7f:5e:b1:34:ad:05:8f:5a:f0:e4:e1:8f:
                    25:f2:5c:5c:61:95:b0:56:2d:31:2b:08:65:79:e5:
                    b1:3b:9d:3e:b9:52:4b:ac:5d:c4:58:66:85:8d:81:
                    b3:04:28:f4:3f:2f:ac:92:01:62:d5:fd:8e:0b:da:
                    02:0c:7a:c7:6e:09:1c:ac:1c:b2:4c:d7:54:b8:26:
                    33:b2:5f:14:f3:b1:f9:3d:62:4d:40:99:6b:b6:e7:
                    89:58:97:d6:d4:4d:ea:4b:68:52:f3:3c:a8:b1:35:
                    88:db
                Exponent: 65537 (0x10001)
        X509v3 extensions:
            X509v3 Subject Key Identifier: 
                A1:DF:33:C3:CF:3E:53:41:A7:68:44:CC:AA:19:E1:84:C9:0D:BC:C6
            X509v3 Authority Key Identifier: 
                keyid:B4:11:33:F1:D7:E2:5E:F7:53:9E:20:22:10:4F:86:06:BF:1F:C9:5E
                DirName:/C=AU/O=Dodgy Brothers/CN=Dodgy CA
                serial:45:A9:F0:5A:76:82:C5:78:87:1D:BA:45:07:D4:1F:6F:EF:65:02:F7
            X509v3 Basic Constraints: critical
                CA:TRUE, pathlen:1
            X509v3 Key Usage: 
                Certificate Sign, CRL Sign
            X509v3 Issuer Alternative Name: 
                <EMPTY>

    Signature Algorithm: sha1WithRSAEncryption
    Signature Value:
        1a:cd:2e:21:70:1d:85:20:2d:ee:87:79:6c:4a:11:81:7d:25:
        f1:89:b5:9e:c6:f2:15:7c:f4:86:10:1d:10:ec:bf:64:a4:47:
        16:71:30:42:85:ea:36:26:51:5c:a1:75:5c:cc:54:f0:40:7f:
        e0:4c:a1:77:05:71:9a:b0:40:5d:fe:03:0d:b6:0e:86:5d:75:
        7a:0b:01:16:1a:95:6b:45:f8:24:6e:25:b0:ba:ce:99:d3:4f:
        73:89:3d:af:2a:67:16:b2:14:df:a3:70:14:e2:87:60:78:c5:
        87:6d:bb:41:ae:79:6f:70:a7:e3:3c:74:d2:a5:73:af:2c:69:
        27:9d:24:ec:1d:6f:7e:76:74:d8:00:1e:de:17:cb:58:72:1b:
        9b:3d:00:f2:7d:59:99:58:eb:8d:f5:6f:d3:2b:33:f7:30:58:
        42:05:38:9d:f0:b9:c8:19:80:27:de:4e:ba:32:8e:bb:20:44:
        61:29:46:44:ae:dc:2c:6a:e0:0a:58:df:09:7f:a2:bb:25:69:
        c2:5d:2d:77:61:97:33:1d:87:4f:bd:c1:b6:a6:0c:90:fa:d1:
        82:23:3f:09:0a:52:18:7b:fa:1f:cd:f5:14:45:c3:79:29:d0:
        8f:d3:f0:b3:19:c4:d3:54:9a:a5:57:7c:e9:9a:e5:da:e0:23:
        a8:35:6d:5d
-----BEGIN CERTIFICATE-----
MIID4zCCAsugAwIBAgIUQunYXeG4Qm+wfqWwMcZBqcFT3HIwDQYJKoZIhvcNAQEF
BQAwOTELMAkGA1UEBhMCQVUxFzAVBgNVBAoMDkRvZGd5IEJyb3RoZXJzMREwDwYD
VQQDDAhEb2RneSBDQTAeFw0yMzAyMDIxMzM1MjlaFw0yNDAyMDIxMzM1MjlaMFcx
CzAJBgNVBAYTAkFVMRcwFQYDVQQKDA5Eb2RneSBCcm90aGVyczESMBAGA1UEAwwJ
QnJvdGhlciAxMRswGQYDVQQDDBJuZXh0dXBkYXRlX2ludmFsaWQwggEiMA0GCSqG
SIb3DQEBAQUAA4IBDwAwggEKAoIBAQC+lYb6cUxq6lGYUEuZoSxmFfNg8+H/afvO
SAEd/uEsOLDjvY9LSKd+OsZz46u/4dpulvX+w+S0qK28VjTUliV0J8MQ2zUQJRyO
S4Gb+0IEfG894jhsDuQujioYbTDNZyojazfPBZ/Mt1lYf7rECj+MpK3LmJzA8o9p
Zw/BTjPP/IVeu17Pk7DP2fRSeYex+E0VaGXVtxkIY39esTStBY9a8OThjyXyXFxh
lbBWLTErCGV55bE7nT65UkusXcRYZoWNgbMEKPQ/L6ySAWLV/Y4L2gIMesduCRys
HLJM11S4JjOyXxTzsfk9Yk1AmWu254lYl9bUTepLaFLzPKixNYjbAgMBAAGjgcQw
gcEwHQYDVR0OBBYEFKHfM8PPPlNBp2hEzKoZ4YTJDbzGMHQGA1UdIwRtMGuAFLQR
M/HX4l73U54gIhBPhga/H8leoT2kOzA5MQswCQYDVQQGEwJBVTEXMBUGA1UECgwO
RG9kZ3kgQnJvdGhlcnMxETAPBgNVBAMMCERvZGd5IENBghRFqfBadoLFeIcdukUH
1B9v72UC9zASBgNVHRMBAf8ECDAGAQH/AgEBMAsGA1UdDwQEAwIBBjAJBgNVHRIE
AjAAMA0GCSqGSIb3DQEBBQUAA4IBAQAazS4hcB2FIC3uh3lsShGBfSXxibWexvIV
fPSGEB0Q7L9kpEcWcTBCheo2JlFcoXVczFTwQH/gTKF3BXGasEBd/gMNtg6GXXV6
CwEWGpVrRfgkbiWwus6Z009ziT2vKmcWshTfo3AU4odgeMWHbbtBrnlvcKfjPHTS
pXOvLGknnSTsHW9+dnTYAB7eF8tYchubPQDyfVmZWOuN9W/TKzP3MFhCBTid8LnI
GYAn3k66Mo67IERhKUZErtwsauAKWN8Jf6K7JWnCXS13YZczHYdPvcG2pgyQ+tGC
Iz8JClIYe/ofzfUURcN5KdCP0/CzGcTTVJqlV3zpmuXa4COoNW1d
-----END CERTIFICATE-----
