Certificate:
    Data:
        Version: 3 (0x2)
        Serial Number:
            42:e9:d8:5d:e1:b8:42:6f:b0:7e:a5:b0:31:c6:41:a9:c1:53:dc:70
        Signature Algorithm: sha1WithRSAEncryption
        Issuer: C=AU, O=Dodgy Brothers, CN=Dodgy CA
        Validity
            Not Before: Feb  2 13:35:28 2023 GMT
            Not After : Feb  2 13:35:28 2024 GMT
        Subject: C=AU, O=Dodgy Brothers, CN=Brother 1, CN=lastupdate_utctime
        Subject Public Key Info:
            Public Key Algorithm: rsaEncryption
                Public-Key: (2048 bit)
                Modulus:
                    00:be:95:86:fa:71:4c:6a:ea:51:98:50:4b:99:a1:
                    2c:66:15:f3:60:f3:e1:ff:69:fb:ce:48:01:1d:fe:
                    e1:2c:38:b0:e3:bd:8f:4b:48:a7:7e:3a:c6:73:e3:
                    ab:bf:e1:da:6e:96:f5:fe:c3:e4:b4:a8:ad:bc:56:
                    34:d4:96:25:74:27:c3:10:db:35:10:25:1c:8e:4b:
                    81:9b:fb:42:04:7c:6f:3d:e2:38:6c:0e:e4:2e:8e:
                    2a:18:6d:30:cd:67:2a:23:6b:37:cf:05:9f:cc:b7:
                    59:58:7f:ba:c4:0a:3f:8c:a4:ad:cb:98:9c:c0:f2:
                    8f:69:67:0f:c1:4e:33:cf:fc:85:5e:bb:5e:cf:93:
                    b0:cf:d9:f4:52:79:87:b1:f8:4d:15:68:65:d5:b7:
                    19:08:63:7f:5e:b1:34:ad:05:8f:5a:f0:e4:e1:8f:
                    25:f2:5c:5c:61:95:b0:56:2d:31:2b:08:65:79:e5:
                    b1:3b:9d:3e:b9:52:4b:ac:5d:c4:58:66:85:8d:81:
                    b3:04:28:f4:3f:2f:ac:92:01:62:d5:fd:8e:0b:da:
                    02:0c:7a:c7:6e:09:1c:ac:1c:b2:4c:d7:54:b8:26:
                    33:b2:5f:14:f3:b1:f9:3d:62:4d:40:99:6b:b6:e7:
                    89:58:97:d6:d4:4d:ea:4b:68:52:f3:3c:a8:b1:35:
                    88:db
                Exponent: 65537 (0x10001)
        X509v3 extensions:
            X509v3 Subject Key Identifier: 
                A1:DF:33:C3:CF:3E:53:41:A7:68:44:CC:AA:19:E1:84:C9:0D:BC:C6
            X509v3 Authority Key Identifier: 
                keyid:B4:11:33:F1:D7:E2:5E:F7:53:9E:20:22:10:4F:86:06:BF:1F:C9:5E
                DirName:/C=AU/O=Dodgy Brothers/CN=Dodgy CA
                serial:45:A9:F0:5A:76:82:C5:78:87:1D:BA:45:07:D4:1F:6F:EF:65:02:F7
            X509v3 Basic Constraints: critical
                CA:TRUE, pathlen:1
            X509v3 Key Usage: 
                Certificate Sign, CRL Sign
            X509v3 Issuer Alternative Name: 
                <EMPTY>

    Signature Algorithm: sha1WithRSAEncryption
    Signature Value:
        12:28:2c:0f:9b:d9:5e:d8:7d:82:17:3c:ea:2b:bc:b7:76:33:
        2f:cf:11:c4:9c:5d:c6:a0:b9:5a:d0:c2:63:62:2b:0f:f9:5c:
        43:ed:38:45:6f:93:04:c0:8a:d6:c3:8b:5d:5d:2b:04:4f:4c:
        b1:c4:83:6e:12:2a:53:19:ad:fe:e2:4f:fd:bb:89:a6:53:02:
        25:8f:6a:0a:7f:21:40:0d:27:20:b2:20:28:04:37:0a:7b:1d:
        12:5f:76:a9:7e:ef:1b:59:3c:63:ca:79:79:bd:73:b1:6c:5c:
        cb:ef:42:12:3b:c6:09:f1:06:e5:d4:21:cd:ca:16:b5:f0:aa:
        db:e1:03:09:1a:42:5f:b8:26:02:f5:18:13:92:01:4e:e1:c0:
        f9:29:38:21:c3:42:f6:05:b8:b8:cb:ac:b1:9f:cd:b2:b9:7e:
        c9:93:45:69:18:8f:b6:63:17:3f:cc:df:0d:b8:b7:16:f8:6d:
        c0:3f:38:d2:5e:04:a4:08:bb:e9:e8:24:f2:14:95:8e:53:6a:
        e4:b5:4b:6d:0e:08:b3:ad:e7:aa:57:8c:b2:a3:c5:27:26:48:
        78:45:34:e0:73:ca:d3:62:11:1e:0c:aa:cd:d2:b2:f7:89:c5:
        fc:b6:56:f3:c0:dd:b7:d5:72:da:ea:64:92:e6:1b:9a:27:60:
        b4:00:8c:5b
-----BEGIN CERTIFICATE-----
MIID4zCCAsugAwIBAgIUQunYXeG4Qm+wfqWwMcZBqcFT3HAwDQYJKoZIhvcNAQEF
BQAwOTELMAkGA1UEBhMCQVUxFzAVBgNVBAoMDkRvZGd5IEJyb3RoZXJzMREwDwYD
VQQDDAhEb2RneSBDQTAeFw0yMzAyMDIxMzM1MjhaFw0yNDAyMDIxMzM1MjhaMFcx
CzAJBgNVBAYTAkFVMRcwFQYDVQQKDA5Eb2RneSBCcm90aGVyczESMBAGA1UEAwwJ
QnJvdGhlciAxMRswGQYDVQQDDBJsYXN0dXBkYXRlX3V0Y3RpbWUwggEiMA0GCSqG
SIb3DQEBAQUAA4IBDwAwggEKAoIBAQC+lYb6cUxq6lGYUEuZoSxmFfNg8+H/afvO
SAEd/uEsOLDjvY9LSKd+OsZz46u/4dpulvX+w+S0qK28VjTUliV0J8MQ2zUQJRyO
S4Gb+0IEfG894jhsDuQujioYbTDNZyojazfPBZ/Mt1lYf7rECj+MpK3LmJzA8o9p
Zw/BTjPP/IVeu17Pk7DP2fRSeYex+E0VaGXVtxkIY39esTStBY9a8OThjyXyXFxh
lbBWLTErCGV55bE7nT65UkusXcRYZoWNgbMEKPQ/L6ySAWLV/Y4L2gIMesduCRys
HLJM11S4JjOyXxTzsfk9Yk1AmWu254lYl9bUTepLaFLzPKixNYjbAgMBAAGjgcQw
gcEwHQYDVR0OBBYEFKHfM8PPPlNBp2hEzKoZ4YTJDbzGMHQGA1UdIwRtMGuAFLQR
M/HX4l73U54gIhBPhga/H8leoT2kOzA5MQswCQYDVQQGEwJBVTEXMBUGA1UECgwO
RG9kZ3kgQnJvdGhlcnMxETAPBgNVBAMMCERvZGd5IENBghRFqfBadoLFeIcdukUH
1B9v72UC9zASBgNVHRMBAf8ECDAGAQH/AgEBMAsGA1UdDwQEAwIBBjAJBgNVHRIE
AjAAMA0GCSqGSIb3DQEBBQUAA4IBAQASKCwPm9le2H2CFzzqK7y3djMvzxHEnF3G
oLla0MJjYisP+VxD7ThFb5MEwIrWw4tdXSsET0yxxINuEipTGa3+4k/9u4mmUwIl
j2oKfyFADScgsiAoBDcKex0SX3apfu8bWTxjynl5vXOxbFzL70ISO8YJ8Qbl1CHN
yha18Krb4QMJGkJfuCYC9RgTkgFO4cD5KTghw0L2Bbi4y6yxn82yuX7Jk0VpGI+2
Yxc/zN8NuLcW+G3APzjSXgSkCLvp6CTyFJWOU2rktUttDgizreeqV4yyo8UnJkh4
RTTgc8rTYhEeDKrN0rL3icX8tlbzwN231XLa6mSS5huaJ2C0AIxb
-----END CERTIFICATE-----
