Certificate:
    Data:
        Version: 3 (0x2)
        Serial Number:
            45:a9:f0:5a:76:82:c5:78:87:1d:ba:45:07:d4:1f:6f:ef:65:02:f7
        Signature Algorithm: sha1WithRSAEncryption
        Issuer: C=AU, O=Dodgy Brothers, CN=Dodgy CA
        Validity
            Not Before: Feb  2 13:35:26 2023 GMT
            Not After : Feb  1 13:35:26 2026 GMT
        Subject: C=AU, O=Dodgy Brothers, CN=Dodgy CA
        Subject Public Key Info:
            Public Key Algorithm: rsaEncryption
                Public-Key: (2048 bit)
                Modulus:
                    00:96:9d:a4:3d:00:4b:1c:5f:c6:cb:dd:8f:d2:31:
                    b2:88:15:cc:c4:86:2c:5c:e2:69:8b:84:f4:a7:a3:
                    53:df:91:e3:bf:51:89:fb:f0:7c:10:0d:3b:ad:ac:
                    35:62:75:f5:7f:ff:f4:6e:54:8f:05:a6:92:23:b3:
                    9f:59:39:d0:39:18:b0:10:40:de:62:73:8a:4e:b0:
                    8e:df:dc:e7:c9:41:22:54:84:80:08:29:bc:35:3c:
                    86:df:30:de:dd:b4:24:ff:7e:62:a5:c0:7a:e8:2a:
                    16:3f:d6:97:da:c5:42:db:2f:69:64:91:cb:08:d7:
                    56:5a:79:7f:1b:84:41:e9:4d:9d:77:09:10:a8:6c:
                    29:33:44:c6:c0:54:65:e6:e8:e3:f2:75:05:6a:64:
                    95:6c:c0:f4:fd:25:61:6e:48:36:f0:c0:03:07:05:
                    d6:7c:e5:11:fd:18:e8:4a:2d:d3:72:0c:37:28:36:
                    31:31:38:85:e8:71:8d:d8:02:49:c8:bc:19:89:c5:
                    8a:b1:3f:a2:35:ea:aa:90:1c:64:68:7b:af:67:6a:
                    5a:06:54:0f:50:e1:f9:b4:f6:be:3a:d4:ce:3f:1e:
                    4c:7d:c6:77:32:3e:a2:58:ed:db:dd:74:d8:92:14:
                    6a:a8:f7:cb:34:58:91:a8:7c:14:b1:7d:08:b3:4d:
                    b1:47
                Exponent: 65537 (0x10001)
        X509v3 extensions:
            X509v3 Subject Key Identifier: 
                B4:11:33:F1:D7:E2:5E:F7:53:9E:20:22:10:4F:86:06:BF:1F:C9:5E
            X509v3 Authority Key Identifier: 
                keyid:B4:11:33:F1:D7:E2:5E:F7:53:9E:20:22:10:4F:86:06:BF:1F:C9:5E
                DirName:/C=AU/O=Dodgy Brothers/CN=Dodgy CA
                serial:45:A9:F0:5A:76:82:C5:78:87:1D:BA:45:07:D4:1F:6F:EF:65:02:F7
            X509v3 Basic Constraints: critical
                CA:TRUE, pathlen:1
            X509v3 Key Usage: 
                Certificate Sign, CRL Sign
            X509v3 Issuer Alternative Name: 
                <EMPTY>

    Signature Algorithm: sha1WithRSAEncryption
    Signature Value:
        3b:8a:83:a4:25:19:da:0a:b2:09:4f:f2:c2:d7:62:ef:60:8a:
        57:ef:63:93:85:14:c2:19:32:2d:47:e4:7a:5d:23:b3:a4:84:
        51:25:19:79:61:ec:1f:a9:e3:46:f7:50:34:30:5c:5c:c0:35:
        e6:da:81:54:d6:39:c3:15:e3:f1:9b:fd:41:a6:de:e7:50:bc:
        83:81:93:ec:54:65:94:37:28:8b:67:0c:d6:f8:c0:29:d4:8e:
        76:e6:d1:ea:d7:40:3a:3c:2b:a5:c6:9a:a4:b9:23:2e:9f:2e:
        6d:1d:8a:3a:7f:e3:79:2b:c5:cd:06:38:aa:89:bf:2e:5d:d2:
        bc:4b:6c:cd:53:11:24:6e:8b:a8:65:b9:f1:18:32:ce:ca:c0:
        f8:24:2e:3e:eb:13:63:ed:43:c7:08:73:e4:c3:8b:3d:f4:35:
        0b:da:9a:23:f8:84:f2:94:65:2b:e0:50:a4:52:5f:2e:85:6c:
        a1:0f:e9:a0:05:b4:4b:12:f6:e9:2f:df:07:d4:d9:c7:68:88:
        66:94:09:56:8b:59:1d:4f:9a:08:c7:d8:0f:d6:96:6f:5e:45:
        52:5b:39:e0:7f:bb:5f:81:a5:33:13:a2:49:f8:c8:4b:9a:74:
        93:60:39:59:cd:42:75:8d:7f:66:4e:8a:f1:5f:ee:b5:5c:c3:
        50:9e:d5:91
-----BEGIN CERTIFICATE-----
MIIDxTCCAq2gAwIBAgIURanwWnaCxXiHHbpFB9Qfb+9lAvcwDQYJKoZIhvcNAQEF
BQAwOTELMAkGA1UEBhMCQVUxFzAVBgNVBAoMDkRvZGd5IEJyb3RoZXJzMREwDwYD
VQQDDAhEb2RneSBDQTAeFw0yMzAyMDIxMzM1MjZaFw0yNjAyMDExMzM1MjZaMDkx
CzAJBgNVBAYTAkFVMRcwFQYDVQQKDA5Eb2RneSBCcm90aGVyczERMA8GA1UEAwwI
RG9kZ3kgQ0EwggEiMA0GCSqGSIb3DQEBAQUAA4IBDwAwggEKAoIBAQCWnaQ9AEsc
X8bL3Y/SMbKIFczEhixc4mmLhPSno1PfkeO/UYn78HwQDTutrDVidfV///RuVI8F
ppIjs59ZOdA5GLAQQN5ic4pOsI7f3OfJQSJUhIAIKbw1PIbfMN7dtCT/fmKlwHro
KhY/1pfaxULbL2lkkcsI11ZaeX8bhEHpTZ13CRCobCkzRMbAVGXm6OPydQVqZJVs
wPT9JWFuSDbwwAMHBdZ85RH9GOhKLdNyDDcoNjExOIXocY3YAknIvBmJxYqxP6I1
6qqQHGRoe69naloGVA9Q4fm09r461M4/Hkx9xncyPqJY7dvddNiSFGqo98s0WJGo
fBSxfQizTbFHAgMBAAGjgcQwgcEwHQYDVR0OBBYEFLQRM/HX4l73U54gIhBPhga/
H8leMHQGA1UdIwRtMGuAFLQRM/HX4l73U54gIhBPhga/H8leoT2kOzA5MQswCQYD
VQQGEwJBVTEXMBUGA1UECgwORG9kZ3kgQnJvdGhlcnMxETAPBgNVBAMMCERvZGd5
IENBghRFqfBadoLFeIcdukUH1B9v72UC9zASBgNVHRMBAf8ECDAGAQH/AgEBMAsG
A1UdDwQEAwIBBjAJBgNVHRIEAjAAMA0GCSqGSIb3DQEBBQUAA4IBAQA7ioOkJRna
CrIJT/LC12LvYIpX72OThRTCGTItR+R6XSOzpIRRJRl5YewfqeNG91A0MFxcwDXm
2oFU1jnDFePxm/1Bpt7nULyDgZPsVGWUNyiLZwzW+MAp1I525tHq10A6PCulxpqk
uSMuny5tHYo6f+N5K8XNBjiqib8uXdK8S2zNUxEkbouoZbnxGDLOysD4JC4+6xNj
7UPHCHPkw4s99DUL2poj+ITylGUr4FCkUl8uhWyhD+mgBbRLEvbpL98H1NnHaIhm
lAlWi1kdT5oIx9gP1pZvXkVSWzngf7tfgaUzE6JJ+MhLmnSTYDlZzUJ1jX9mTorx
X+61XMNQntWR
-----END CERTIFICATE-----
